Component: ARM Compiler 5.06 update 1 (build 61) Tool: armlink [4d35a8]

==============================================================================

Section Cross References

    main.o(i.app_coap_time_tick) refers to coap.o(i.coap_time_tick) for coap_time_tick
    main.o(i.app_error_handler) refers to strncpy.o(.text) for strncpy
    main.o(i.app_error_handler) refers to main.o(.bss) for .bss
    main.o(i.app_error_handler) refers to main.o(.data) for .data
    main.o(i.assert_nrf_callback) refers to main.o(i.app_error_handler) for app_error_handler
    main.o(i.blink_timeout_handler) refers to main.o(.data) for .data
    main.o(i.button_event_handler) refers to commissioning.o(i.commissioning_settings_clear) for commissioning_settings_clear
    main.o(i.coap_endpoints_init) refers to coap_resource.o(i.coap_resource_create) for coap_resource_create
    main.o(i.coap_endpoints_init) refers to main.o(i.app_error_handler) for app_error_handler
    main.o(i.coap_endpoints_init) refers to coap_resource.o(i.coap_resource_child_add) for coap_resource_child_add
    main.o(i.coap_endpoints_init) refers to coap_resource.o(i.coap_resource_well_known_generate) for coap_resource_well_known_generate
    main.o(i.coap_endpoints_init) refers to main.o(.bss) for .bss
    main.o(i.coap_endpoints_init) refers to main.o(i.well_known_core_callback) for well_known_core_callback
    main.o(i.coap_endpoints_init) refers to main.o(.constdata) for .constdata
    main.o(i.coap_endpoints_init) refers to main.o(i.led3_callback) for led3_callback
    main.o(i.coap_endpoints_init) refers to main.o(i.led4_callback) for led4_callback
    main.o(i.commissioning_id_mode_cb) refers to main.o(.data) for .data
    main.o(i.commissioning_power_off_cb) refers to main.o(.data) for .data
    main.o(i.connectable_mode_enter) refers to ipv6_medium_ble.o(i.ipv6_medium_connectable_mode_enter) for ipv6_medium_connectable_mode_enter
    main.o(i.connectable_mode_enter) refers to main.o(i.app_error_handler) for app_error_handler
    main.o(i.connectable_mode_enter) refers to main.o(.data) for .data
    main.o(i.handle_led_request) refers to memseta.o(.text) for __aeabi_memclr4
    main.o(i.handle_led_request) refers to memcpya.o(.text) for __aeabi_memcpy4
    main.o(i.handle_led_request) refers to coap.o(i.coap_message_new) for coap_message_new
    main.o(i.handle_led_request) refers to main.o(i.app_error_handler) for app_error_handler
    main.o(i.handle_led_request) refers to coap_message.o(i.coap_message_remote_addr_set) for coap_message_remote_addr_set
    main.o(i.handle_led_request) refers to coap.o(i.coap_message_send) for coap_message_send
    main.o(i.handle_led_request) refers to coap.o(i.coap_message_delete) for coap_message_delete
    main.o(i.handle_led_request) refers to coap_message.o(i.coap_message_ct_match_select) for coap_message_ct_match_select
    main.o(i.handle_led_request) refers to main.o(i.led_value_get) for led_value_get
    main.o(i.handle_led_request) refers to strlen.o(.text) for strlen
    main.o(i.handle_led_request) refers to coap_message.o(i.coap_message_payload_set) for coap_message_payload_set
    main.o(i.iot_timer_tick_callback) refers to iot_timer.o(i.iot_timer_update) for iot_timer_update
    main.o(i.iot_timer_tick_callback) refers to main.o(i.app_error_handler) for app_error_handler
    main.o(i.ip_app_handler) refers to commissioning.o(i.commissioning_joining_mode_timer_ctrl) for commissioning_joining_mode_timer_ctrl
    main.o(i.ip_app_handler) refers to nrf_delay.o(i.nrf_delay_ms) for nrf_delay_ms
    main.o(i.ip_app_handler) refers to icmp6.o(i.icmp6_rs_send) for icmp6_rs_send
    main.o(i.ip_app_handler) refers to main.o(i.app_error_handler) for app_error_handler
    main.o(i.ip_app_handler) refers to main.o(.data) for .data
    main.o(i.ip_app_handler) refers to main.o(.constdata) for .constdata
    main.o(i.led3_callback) refers to main.o(i.handle_led_request) for handle_led_request
    main.o(i.led4_callback) refers to main.o(i.handle_led_request) for handle_led_request
    main.o(i.led_value_get) refers to printf1.o(i.__0sprintf$1) for __2sprintf
    main.o(i.led_value_get) refers to main.o(.data) for .data
    main.o(i.main) refers to app_timer.o(i.app_timer_init) for app_timer_init
    main.o(i.main) refers to main.o(i.app_error_handler) for app_error_handler
    main.o(i.main) refers to app_timer.o(i.app_timer_create) for app_timer_create
    main.o(i.main) refers to pstorage.o(i.pstorage_init) for pstorage_init
    main.o(i.main) refers to app_button.o(i.app_button_init) for app_button_init
    main.o(i.main) refers to app_button.o(i.app_button_enable) for app_button_enable
    main.o(i.main) refers to memseta.o(.text) for __aeabi_memclr4
    main.o(i.main) refers to ipv6_medium_ble.o(i.ipv6_medium_init) for ipv6_medium_init
    main.o(i.main) refers to ipv6_medium_ble.o(i.ipv6_medium_eui48_get) for ipv6_medium_eui48_get
    main.o(i.main) refers to ipv6_medium_ble.o(i.ipv6_medium_eui48_set) for ipv6_medium_eui48_set
    main.o(i.main) refers to ipv6_medium_ble.o(i.ipv6_medium_eui64_get) for ipv6_medium_eui64_get
    main.o(i.main) refers to ipv6.o(i.ipv6_init) for ipv6_init
    main.o(i.main) refers to icmp6.o(i.icmp6_receive_register) for icmp6_receive_register
    main.o(i.main) refers to coap.o(i.coap_init) for coap_init
    main.o(i.main) refers to coap.o(i.coap_error_handler_register) for coap_error_handler_register
    main.o(i.main) refers to main.o(i.coap_endpoints_init) for coap_endpoints_init
    main.o(i.main) refers to iot_timer.o(i.iot_timer_client_list_set) for iot_timer_client_list_set
    main.o(i.main) refers to app_timer.o(i.app_timer_start) for app_timer_start
    main.o(i.main) refers to main.o(i.connectable_mode_enter) for connectable_mode_enter
    main.o(i.main) refers to main.o(.bss) for .bss
    main.o(i.main) refers to main.o(i.iot_timer_tick_callback) for iot_timer_tick_callback
    main.o(i.main) refers to main.o(.constdata) for .constdata
    main.o(i.main) refers to main.o(.data) for .data
    main.o(i.main) refers to main.o(i.on_ipv6_medium_evt) for on_ipv6_medium_evt
    main.o(i.main) refers to main.o(i.on_ipv6_medium_error) for on_ipv6_medium_error
    main.o(i.main) refers to main.o(i.commissioning_id_mode_cb) for commissioning_id_mode_cb
    main.o(i.main) refers to main.o(i.commissioning_power_off_cb) for commissioning_power_off_cb
    main.o(i.main) refers to main.o(i.ip_app_handler) for ip_app_handler
    main.o(i.main) refers to main.o(i.icmp6_handler) for icmp6_handler
    main.o(i.main) refers to main.o(i.coap_error_handler) for coap_error_handler
    main.o(i.on_ipv6_medium_evt) refers to main.o(i.connectable_mode_enter) for connectable_mode_enter
    main.o(i.on_ipv6_medium_evt) refers to main.o(.data) for .data
    main.o(i.well_known_core_callback) refers to memseta.o(.text) for __aeabi_memclr4
    main.o(i.well_known_core_callback) refers to memcpya.o(.text) for __aeabi_memcpy4
    main.o(i.well_known_core_callback) refers to coap.o(i.coap_message_new) for coap_message_new
    main.o(i.well_known_core_callback) refers to main.o(i.app_error_handler) for app_error_handler
    main.o(i.well_known_core_callback) refers to coap_message.o(i.coap_message_remote_addr_set) for coap_message_remote_addr_set
    main.o(i.well_known_core_callback) refers to coap_message.o(i.coap_message_opt_uint_add) for coap_message_opt_uint_add
    main.o(i.well_known_core_callback) refers to strlen.o(.text) for strlen
    main.o(i.well_known_core_callback) refers to coap_message.o(i.coap_message_payload_set) for coap_message_payload_set
    main.o(i.well_known_core_callback) refers to coap.o(i.coap_message_send) for coap_message_send
    main.o(i.well_known_core_callback) refers to coap.o(i.coap_message_delete) for coap_message_delete
    main.o(i.well_known_core_callback) refers to main.o(.bss) for .bss
    main.o(.constdata) refers to main.o(.bss) for m_iot_timer_tick_src_id_data
    main.o(.constdata) refers to main.o(.constdata) for list_of_clients
    main.o(.constdata) refers to main.o(i.blink_timeout_handler) for blink_timeout_handler
    main.o(.constdata) refers to main.o(i.app_coap_time_tick) for app_coap_time_tick
    main.o(.constdata) refers to commissioning.o(i.commissioning_time_tick) for commissioning_time_tick
    main.o(.data) refers to main.o(i.button_event_handler) for button_event_handler
    bsp.o(i.bsp_button_event_handler) refers to app_timer.o(i.app_timer_start) for app_timer_start
    bsp.o(i.bsp_button_event_handler) refers to app_timer.o(i.app_timer_stop) for app_timer_stop
    bsp.o(i.bsp_button_event_handler) refers to bsp.o(.constdata) for .constdata
    bsp.o(i.bsp_button_event_handler) refers to bsp.o(.data) for .data
    bsp.o(i.bsp_button_event_handler) refers to bsp.o(.bss) for .bss
    bsp.o(i.bsp_button_is_pressed) refers to bsp.o(.constdata) for .constdata
    bsp.o(i.bsp_buttons_disable) refers to app_button.o(i.app_button_disable) for app_button_disable
    bsp.o(i.bsp_buttons_enable) refers to app_button.o(i.app_button_enable) for app_button_enable
    bsp.o(i.bsp_buttons_state_get) refers to bsp.o(.constdata) for .constdata
    bsp.o(i.bsp_event_to_button_action_assign) refers to bsp.o(.bss) for .bss
    bsp.o(i.bsp_indication_set) refers to bsp.o(i.bsp_led_indication) for bsp_led_indication
    bsp.o(i.bsp_indication_set) refers to bsp.o(.data) for .data
    bsp.o(i.bsp_indication_text_set) refers to bsp.o(i.bsp_indication_set) for bsp_indication_set
    bsp.o(i.bsp_init) refers to bsp.o(i.bsp_event_to_button_action_assign) for bsp_event_to_button_action_assign
    bsp.o(i.bsp_init) refers to app_button.o(i.app_button_init) for app_button_init
    bsp.o(i.bsp_init) refers to app_button.o(i.app_button_enable) for app_button_enable
    bsp.o(i.bsp_init) refers to app_timer.o(i.app_timer_create) for app_timer_create
    bsp.o(i.bsp_init) refers to bsp.o(.data) for .data
    bsp.o(i.bsp_init) refers to bsp.o(.constdata) for .constdata
    bsp.o(i.bsp_init) refers to bsp.o(i.button_timer_handler) for button_timer_handler
    bsp.o(i.bsp_init) refers to bsp.o(i.leds_timer_handler) for leds_timer_handler
    bsp.o(i.bsp_init) refers to bsp.o(i.alert_timer_handler) for alert_timer_handler
    bsp.o(i.bsp_led_indication) refers to app_timer.o(i.app_timer_start) for app_timer_start
    bsp.o(i.bsp_led_indication) refers to app_timer.o(i.app_timer_stop) for app_timer_stop
    bsp.o(i.bsp_led_indication) refers to bsp.o(.data) for .data
    bsp.o(i.bsp_led_indication) refers to bsp.o(.constdata) for .constdata
    bsp.o(i.bsp_wakeup_buttons_set) refers to bsp.o(.constdata) for .constdata
    bsp.o(i.button_timer_handler) refers to bsp.o(i.bsp_button_event_handler) for bsp_button_event_handler
    bsp.o(i.leds_timer_handler) refers to bsp.o(i.bsp_led_indication) for bsp_led_indication
    bsp.o(i.leds_timer_handler) refers to bsp.o(.data) for .data
    bsp.o(.constdata) refers to bsp.o(.bss) for m_leds_timer_id_data
    bsp.o(.constdata) refers to bsp.o(.bss) for m_alert_timer_id_data
    bsp.o(.constdata) refers to bsp.o(.bss) for m_button_timer_id_data
    bsp.o(.constdata) refers to bsp.o(i.bsp_button_event_handler) for bsp_button_event_handler
    ble_advdata.o(i.adv_data_encode) refers to ble_advdata.o(i.le_role_encode) for le_role_encode
    ble_advdata.o(i.adv_data_encode) refers to ble_advdata.o(i.ble_device_addr_encode) for ble_device_addr_encode
    ble_advdata.o(i.adv_data_encode) refers to ble_advdata.o(i.uint16_encode) for uint16_encode
    ble_advdata.o(i.adv_data_encode) refers to ble_advdata.o(i.uuid_list_encode) for uuid_list_encode
    ble_advdata.o(i.adv_data_encode) refers to ble_advdata.o(i.conn_int_encode) for conn_int_encode
    ble_advdata.o(i.adv_data_encode) refers to ble_advdata.o(i.manuf_specific_data_encode) for manuf_specific_data_encode
    ble_advdata.o(i.adv_data_encode) refers to ble_advdata.o(i.service_data_encode) for service_data_encode
    ble_advdata.o(i.adv_data_encode) refers to ble_advdata.o(i.name_encode) for name_encode
    ble_advdata.o(i.ble_advdata_set) refers to ble_advdata.o(i.adv_data_encode) for adv_data_encode
    ble_advdata.o(i.conn_int_encode) refers to ble_advdata.o(i.uint16_encode) for uint16_encode
    ble_advdata.o(i.manuf_specific_data_encode) refers to ble_advdata.o(i.uint16_encode) for uint16_encode
    ble_advdata.o(i.manuf_specific_data_encode) refers to memcpya.o(.text) for __aeabi_memcpy
    ble_advdata.o(i.service_data_encode) refers to ble_advdata.o(i.uint16_encode) for uint16_encode
    ble_advdata.o(i.service_data_encode) refers to memcpya.o(.text) for __aeabi_memcpy
    ble_advdata.o(i.uuid_list_encode) refers to ble_advdata.o(i.uuid_list_sized_encode) for uuid_list_sized_encode
    ble_conn_params.o(i.ble_conn_params_change_conn_params) refers to ble_conn_params.o(i.is_conn_params_ok) for is_conn_params_ok
    ble_conn_params.o(i.ble_conn_params_change_conn_params) refers to ble_conn_params.o(.data) for .data
    ble_conn_params.o(i.ble_conn_params_change_conn_params) refers to ble_conn_params.o(.bss) for .bss
    ble_conn_params.o(i.ble_conn_params_init) refers to memcpya.o(.text) for __aeabi_memcpy4
    ble_conn_params.o(i.ble_conn_params_init) refers to app_timer.o(i.app_timer_create) for app_timer_create
    ble_conn_params.o(i.ble_conn_params_init) refers to ble_conn_params.o(.bss) for .bss
    ble_conn_params.o(i.ble_conn_params_init) refers to ble_conn_params.o(.data) for .data
    ble_conn_params.o(i.ble_conn_params_init) refers to ble_conn_params.o(i.update_timeout_handler) for update_timeout_handler
    ble_conn_params.o(i.ble_conn_params_init) refers to ble_conn_params.o(.constdata) for .constdata
    ble_conn_params.o(i.ble_conn_params_on_ble_evt) refers to ble_conn_params.o(i.conn_params_negotiation) for conn_params_negotiation
    ble_conn_params.o(i.ble_conn_params_on_ble_evt) refers to app_timer.o(i.app_timer_stop) for app_timer_stop
    ble_conn_params.o(i.ble_conn_params_on_ble_evt) refers to ble_conn_params.o(.data) for .data
    ble_conn_params.o(i.ble_conn_params_on_ble_evt) refers to ble_conn_params.o(.bss) for .bss
    ble_conn_params.o(i.ble_conn_params_on_ble_evt) refers to ble_conn_params.o(.constdata) for .constdata
    ble_conn_params.o(i.ble_conn_params_stop) refers to app_timer.o(i.app_timer_stop) for app_timer_stop
    ble_conn_params.o(i.ble_conn_params_stop) refers to ble_conn_params.o(.constdata) for .constdata
    ble_conn_params.o(i.conn_params_negotiation) refers to ble_conn_params.o(i.is_conn_params_ok) for is_conn_params_ok
    ble_conn_params.o(i.conn_params_negotiation) refers to app_timer.o(i.app_timer_start) for app_timer_start
    ble_conn_params.o(i.conn_params_negotiation) refers to ble_conn_params.o(.data) for .data
    ble_conn_params.o(i.conn_params_negotiation) refers to ble_conn_params.o(.bss) for .bss
    ble_conn_params.o(i.conn_params_negotiation) refers to ble_conn_params.o(.constdata) for .constdata
    ble_conn_params.o(i.is_conn_params_ok) refers to ble_conn_params.o(.data) for .data
    ble_conn_params.o(i.update_timeout_handler) refers to ble_conn_params.o(.data) for .data
    ble_conn_params.o(i.update_timeout_handler) refers to ble_conn_params.o(.bss) for .bss
    ble_conn_params.o(.constdata) refers to ble_conn_params.o(.bss) for m_conn_params_timer_id_data
    ble_srv_common.o(i.ble_srv_ascii_to_utf8) refers to strlen.o(.text) for strlen
    ble_srv_common.o(i.characteristic_add) refers to ble_srv_common.o(i.set_security_req) for set_security_req
    ble_srv_common.o(i.characteristic_add) refers to memseta.o(.text) for __aeabi_memclr4
    ble_srv_common.o(i.descriptor_add) refers to memseta.o(.text) for __aeabi_memclr4
    ble_srv_common.o(i.descriptor_add) refers to ble_srv_common.o(i.set_security_req) for set_security_req
    app_uart_fifo.o(i.app_uart_close) refers to nrf_drv_uart.o(i.nrf_drv_uart_uninit) for nrf_drv_uart_uninit
    app_uart_fifo.o(i.app_uart_flush) refers to app_fifo.o(i.app_fifo_flush) for app_fifo_flush
    app_uart_fifo.o(i.app_uart_flush) refers to app_uart_fifo.o(.bss) for .bss
    app_uart_fifo.o(i.app_uart_get) refers to nrf_drv_uart.o(i.nrf_drv_uart_rx) for nrf_drv_uart_rx
    app_uart_fifo.o(i.app_uart_get) refers to app_fifo.o(i.app_fifo_get) for app_fifo_get
    app_uart_fifo.o(i.app_uart_get) refers to app_uart_fifo.o(.bss) for .bss
    app_uart_fifo.o(i.app_uart_get) refers to app_uart_fifo.o(.data) for .data
    app_uart_fifo.o(i.app_uart_init) refers to app_fifo.o(i.app_fifo_init) for app_fifo_init
    app_uart_fifo.o(i.app_uart_init) refers to memcpya.o(.text) for __aeabi_memcpy4
    app_uart_fifo.o(i.app_uart_init) refers to nrf_drv_uart.o(i.nrf_drv_uart_init) for nrf_drv_uart_init
    app_uart_fifo.o(i.app_uart_init) refers to nrf_drv_uart.o(i.nrf_drv_uart_rx_enable) for nrf_drv_uart_rx_enable
    app_uart_fifo.o(i.app_uart_init) refers to nrf_drv_uart.o(i.nrf_drv_uart_rx) for nrf_drv_uart_rx
    app_uart_fifo.o(i.app_uart_init) refers to app_uart_fifo.o(.data) for .data
    app_uart_fifo.o(i.app_uart_init) refers to app_uart_fifo.o(.bss) for .bss
    app_uart_fifo.o(i.app_uart_init) refers to app_uart_fifo.o(.constdata) for .constdata
    app_uart_fifo.o(i.app_uart_init) refers to app_uart_fifo.o(i.uart_event_handler) for uart_event_handler
    app_uart_fifo.o(i.app_uart_put) refers to nrf_drv_uart.o(i.nrf_drv_uart_tx) for nrf_drv_uart_tx
    app_uart_fifo.o(i.app_uart_put) refers to app_fifo.o(i.app_fifo_put) for app_fifo_put
    app_uart_fifo.o(i.app_uart_put) refers to app_uart_fifo.o(.data) for .data
    app_uart_fifo.o(i.app_uart_put) refers to app_uart_fifo.o(.bss) for .bss
    app_uart_fifo.o(i.uart_event_handler) refers to app_fifo.o(i.app_fifo_get) for app_fifo_get
    app_uart_fifo.o(i.uart_event_handler) refers to app_fifo.o(i.app_fifo_put) for app_fifo_put
    app_uart_fifo.o(i.uart_event_handler) refers to nrf_drv_uart.o(i.nrf_drv_uart_rx) for nrf_drv_uart_rx
    app_uart_fifo.o(i.uart_event_handler) refers to nrf_drv_uart.o(i.nrf_drv_uart_tx) for nrf_drv_uart_tx
    app_uart_fifo.o(i.uart_event_handler) refers to app_uart_fifo.o(.data) for .data
    app_uart_fifo.o(i.uart_event_handler) refers to app_uart_fifo.o(.bss) for .bss
    nrf_delay.o(i.nrf_delay_ms) refers to nrf_delay.o(.emb_text) for __asm___11_nrf_delay_c_532987f3__nrf_delay_us
    nrf_drv_gpiote.o(i.GPIOTE_IRQHandler) refers to nrf_drv_gpiote.o(i.nrf_gpiote_event_is_set) for nrf_gpiote_event_is_set
    nrf_drv_gpiote.o(i.GPIOTE_IRQHandler) refers to nrf_drv_gpiote.o(i.nrf_gpiote_event_clear) for nrf_gpiote_event_clear
    nrf_drv_gpiote.o(i.GPIOTE_IRQHandler) refers to nrf_drv_gpiote.o(i.channel_port_get) for channel_port_get
    nrf_drv_gpiote.o(i.GPIOTE_IRQHandler) refers to nrf_drv_gpiote.o(i.nrf_gpio_cfg_sense_set) for nrf_gpio_cfg_sense_set
    nrf_drv_gpiote.o(i.GPIOTE_IRQHandler) refers to nrf_drv_gpiote.o(.bss) for .bss
    nrf_drv_gpiote.o(i.channel_free) refers to nrf_drv_gpiote.o(.bss) for .bss
    nrf_drv_gpiote.o(i.channel_port_alloc) refers to nrf_drv_gpiote.o(.bss) for .bss
    nrf_drv_gpiote.o(i.channel_port_get) refers to nrf_drv_gpiote.o(.bss) for .bss
    nrf_drv_gpiote.o(i.nrf_drv_gpiote_in_event_addr_get) refers to nrf_drv_gpiote.o(i.channel_port_get) for channel_port_get
    nrf_drv_gpiote.o(i.nrf_drv_gpiote_in_event_disable) refers to nrf_drv_gpiote.o(i.pin_in_use_by_port) for pin_in_use_by_port
    nrf_drv_gpiote.o(i.nrf_drv_gpiote_in_event_disable) refers to nrf_drv_gpiote.o(i.nrf_gpio_cfg_sense_set) for nrf_gpio_cfg_sense_set
    nrf_drv_gpiote.o(i.nrf_drv_gpiote_in_event_disable) refers to nrf_drv_gpiote.o(i.pin_in_use_by_te) for pin_in_use_by_te
    nrf_drv_gpiote.o(i.nrf_drv_gpiote_in_event_disable) refers to nrf_drv_gpiote.o(i.channel_port_get) for channel_port_get
    nrf_drv_gpiote.o(i.nrf_drv_gpiote_in_event_enable) refers to nrf_drv_gpiote.o(i.pin_in_use_by_port) for pin_in_use_by_port
    nrf_drv_gpiote.o(i.nrf_drv_gpiote_in_event_enable) refers to nrf_drv_gpiote.o(i.channel_port_get) for channel_port_get
    nrf_drv_gpiote.o(i.nrf_drv_gpiote_in_event_enable) refers to nrf_drv_gpiote.o(i.nrf_gpio_cfg_sense_set) for nrf_gpio_cfg_sense_set
    nrf_drv_gpiote.o(i.nrf_drv_gpiote_in_event_enable) refers to nrf_drv_gpiote.o(i.pin_in_use_by_te) for pin_in_use_by_te
    nrf_drv_gpiote.o(i.nrf_drv_gpiote_in_event_enable) refers to nrf_drv_gpiote.o(i.nrf_gpiote_event_clear) for nrf_gpiote_event_clear
    nrf_drv_gpiote.o(i.nrf_drv_gpiote_in_event_enable) refers to nrf_drv_gpiote.o(.bss) for .bss
    nrf_drv_gpiote.o(i.nrf_drv_gpiote_in_init) refers to nrf_drv_gpiote.o(i.channel_port_alloc) for channel_port_alloc
    nrf_drv_gpiote.o(i.nrf_drv_gpiote_in_init) refers to nrf_drv_gpiote.o(i.nrf_gpio_cfg) for nrf_gpio_cfg
    nrf_drv_gpiote.o(i.nrf_drv_gpiote_in_init) refers to nrf_drv_gpiote.o(.bss) for .bss
    nrf_drv_gpiote.o(i.nrf_drv_gpiote_in_uninit) refers to nrf_drv_gpiote.o(i.nrf_drv_gpiote_in_event_disable) for nrf_drv_gpiote_in_event_disable
    nrf_drv_gpiote.o(i.nrf_drv_gpiote_in_uninit) refers to nrf_drv_gpiote.o(i.pin_in_use_by_te) for pin_in_use_by_te
    nrf_drv_gpiote.o(i.nrf_drv_gpiote_in_uninit) refers to nrf_drv_gpiote.o(i.channel_port_get) for channel_port_get
    nrf_drv_gpiote.o(i.nrf_drv_gpiote_in_uninit) refers to nrf_drv_gpiote.o(i.nrf_gpio_cfg_default) for nrf_gpio_cfg_default
    nrf_drv_gpiote.o(i.nrf_drv_gpiote_in_uninit) refers to nrf_drv_gpiote.o(i.channel_free) for channel_free
    nrf_drv_gpiote.o(i.nrf_drv_gpiote_in_uninit) refers to nrf_drv_gpiote.o(.bss) for .bss
    nrf_drv_gpiote.o(i.nrf_drv_gpiote_init) refers to nrf_drv_gpiote.o(i.channel_free) for channel_free
    nrf_drv_gpiote.o(i.nrf_drv_gpiote_init) refers to nrf_drv_common.o(i.nrf_drv_common_irq_enable) for nrf_drv_common_irq_enable
    nrf_drv_gpiote.o(i.nrf_drv_gpiote_init) refers to nrf_drv_gpiote.o(.bss) for .bss
    nrf_drv_gpiote.o(i.nrf_drv_gpiote_is_init) refers to nrf_drv_gpiote.o(.bss) for .bss
    nrf_drv_gpiote.o(i.nrf_drv_gpiote_out_init) refers to nrf_drv_gpiote.o(i.channel_port_alloc) for channel_port_alloc
    nrf_drv_gpiote.o(i.nrf_drv_gpiote_out_init) refers to nrf_drv_gpiote.o(i.nrf_gpio_cfg) for nrf_gpio_cfg
    nrf_drv_gpiote.o(i.nrf_drv_gpiote_out_init) refers to nrf_drv_gpiote.o(.bss) for .bss
    nrf_drv_gpiote.o(i.nrf_drv_gpiote_out_task_addr_get) refers to nrf_drv_gpiote.o(i.channel_port_get) for channel_port_get
    nrf_drv_gpiote.o(i.nrf_drv_gpiote_out_task_disable) refers to nrf_drv_gpiote.o(.bss) for .bss
    nrf_drv_gpiote.o(i.nrf_drv_gpiote_out_task_enable) refers to nrf_drv_gpiote.o(.bss) for .bss
    nrf_drv_gpiote.o(i.nrf_drv_gpiote_out_task_force) refers to nrf_drv_gpiote.o(.bss) for .bss
    nrf_drv_gpiote.o(i.nrf_drv_gpiote_out_task_trigger) refers to nrf_drv_gpiote.o(i.channel_port_get) for channel_port_get
    nrf_drv_gpiote.o(i.nrf_drv_gpiote_out_uninit) refers to nrf_drv_gpiote.o(i.pin_in_use_by_te) for pin_in_use_by_te
    nrf_drv_gpiote.o(i.nrf_drv_gpiote_out_uninit) refers to nrf_drv_gpiote.o(i.channel_port_get) for channel_port_get
    nrf_drv_gpiote.o(i.nrf_drv_gpiote_out_uninit) refers to nrf_drv_gpiote.o(i.channel_free) for channel_free
    nrf_drv_gpiote.o(i.nrf_drv_gpiote_out_uninit) refers to nrf_drv_gpiote.o(i.nrf_gpio_cfg_default) for nrf_gpio_cfg_default
    nrf_drv_gpiote.o(i.nrf_drv_gpiote_out_uninit) refers to nrf_drv_gpiote.o(.bss) for .bss
    nrf_drv_gpiote.o(i.nrf_drv_gpiote_uninit) refers to nrf_drv_gpiote.o(i.nrf_drv_gpiote_in_uninit) for nrf_drv_gpiote_in_uninit
    nrf_drv_gpiote.o(i.nrf_drv_gpiote_uninit) refers to nrf_drv_gpiote.o(i.nrf_drv_gpiote_out_uninit) for nrf_drv_gpiote_out_uninit
    nrf_drv_gpiote.o(i.nrf_drv_gpiote_uninit) refers to nrf_drv_gpiote.o(.bss) for .bss
    nrf_drv_gpiote.o(i.nrf_gpio_cfg_default) refers to nrf_drv_gpiote.o(i.nrf_gpio_cfg) for nrf_gpio_cfg
    nrf_drv_gpiote.o(i.pin_in_use_by_port) refers to nrf_drv_gpiote.o(.bss) for .bss
    nrf_drv_gpiote.o(i.pin_in_use_by_te) refers to nrf_drv_gpiote.o(.bss) for .bss
    nrf_drv_uart.o(i.UARTE0_UART0_IRQHandler) refers to nrf_drv_uart.o(i.nrf_uarte_event_check) for nrf_uarte_event_check
    nrf_drv_uart.o(i.UARTE0_UART0_IRQHandler) refers to nrf_drv_uart.o(i.rx_done_event) for rx_done_event
    nrf_drv_uart.o(i.UARTE0_UART0_IRQHandler) refers to nrf_drv_uart.o(i.tx_done_event) for tx_done_event
    nrf_drv_uart.o(i.UARTE0_UART0_IRQHandler) refers to nrf_drv_uart.o(i.nrf_uart_int_enable_check) for nrf_uart_int_enable_check
    nrf_drv_uart.o(i.UARTE0_UART0_IRQHandler) refers to nrf_drv_uart.o(i.nrf_uart_event_check) for nrf_uart_event_check
    nrf_drv_uart.o(i.UARTE0_UART0_IRQHandler) refers to nrf_drv_uart.o(i.rx_byte) for rx_byte
    nrf_drv_uart.o(i.UARTE0_UART0_IRQHandler) refers to nrf_drv_uart.o(i.tx_byte) for tx_byte
    nrf_drv_uart.o(i.UARTE0_UART0_IRQHandler) refers to nrf_drv_uart.o(.bss) for .bss
    nrf_drv_uart.o(i.apply_config) refers to nrf_drv_uart.o(i.nrf_gpio_cfg_output) for nrf_gpio_cfg_output
    nrf_drv_uart.o(i.apply_config) refers to nrf_drv_uart.o(i.nrf_gpio_cfg_input) for nrf_gpio_cfg_input
    nrf_drv_uart.o(i.apply_config) refers to nrf_drv_uart.o(.bss) for .bss
    nrf_drv_uart.o(i.nrf_drv_uart_errorsrc_get) refers to nrf_drv_uart.o(.bss) for .bss
    nrf_drv_uart.o(i.nrf_drv_uart_init) refers to nrf_drv_uart.o(i.apply_config) for apply_config
    nrf_drv_uart.o(i.nrf_drv_uart_init) refers to nrf_drv_common.o(i.nrf_drv_common_irq_enable) for nrf_drv_common_irq_enable
    nrf_drv_uart.o(i.nrf_drv_uart_init) refers to nrf_drv_uart.o(.bss) for .bss
    nrf_drv_uart.o(i.nrf_drv_uart_init) refers to nrf_drv_uart.o(.constdata) for .constdata
    nrf_drv_uart.o(i.nrf_drv_uart_rx) refers to nrf_drv_uart.o(i.nrf_uarte_event_check) for nrf_uarte_event_check
    nrf_drv_uart.o(i.nrf_drv_uart_rx) refers to nrf_drv_uart.o(i.rx_enable) for rx_enable
    nrf_drv_uart.o(i.nrf_drv_uart_rx) refers to nrf_drv_uart.o(i.nrf_uart_event_check) for nrf_uart_event_check
    nrf_drv_uart.o(i.nrf_drv_uart_rx) refers to nrf_drv_uart.o(i.rx_byte) for rx_byte
    nrf_drv_uart.o(i.nrf_drv_uart_rx) refers to nrf_drv_uart.o(.bss) for .bss
    nrf_drv_uart.o(i.nrf_drv_uart_rx_abort) refers to nrf_drv_uart.o(.bss) for .bss
    nrf_drv_uart.o(i.nrf_drv_uart_rx_disable) refers to nrf_drv_uart.o(.bss) for .bss
    nrf_drv_uart.o(i.nrf_drv_uart_rx_enable) refers to nrf_drv_uart.o(i.rx_enable) for rx_enable
    nrf_drv_uart.o(i.nrf_drv_uart_rx_enable) refers to nrf_drv_uart.o(.bss) for .bss
    nrf_drv_uart.o(i.nrf_drv_uart_tx) refers to nrf_drv_uart.o(i.nrf_uarte_event_check) for nrf_uarte_event_check
    nrf_drv_uart.o(i.nrf_drv_uart_tx) refers to nrf_drv_uart.o(i.tx_byte) for tx_byte
    nrf_drv_uart.o(i.nrf_drv_uart_tx) refers to nrf_drv_uart.o(i.nrf_uart_event_check) for nrf_uart_event_check
    nrf_drv_uart.o(i.nrf_drv_uart_tx) refers to nrf_drv_uart.o(.bss) for .bss
    nrf_drv_uart.o(i.nrf_drv_uart_tx_abort) refers to nrf_drv_uart.o(i.nrf_uarte_event_check) for nrf_uarte_event_check
    nrf_drv_uart.o(i.nrf_drv_uart_tx_abort) refers to nrf_drv_uart.o(i.tx_done_event) for tx_done_event
    nrf_drv_uart.o(i.nrf_drv_uart_tx_abort) refers to nrf_drv_uart.o(.bss) for .bss
    nrf_drv_uart.o(i.nrf_drv_uart_uninit) refers to nrf_drv_uart.o(i.pins_to_default) for pins_to_default
    nrf_drv_uart.o(i.nrf_drv_uart_uninit) refers to nrf_drv_uart.o(.bss) for .bss
    nrf_drv_uart.o(i.nrf_gpio_cfg_default) refers to nrf_drv_uart.o(i.nrf_gpio_cfg) for nrf_gpio_cfg
    nrf_drv_uart.o(i.nrf_gpio_cfg_input) refers to nrf_drv_uart.o(i.nrf_gpio_cfg) for nrf_gpio_cfg
    nrf_drv_uart.o(i.nrf_gpio_cfg_output) refers to nrf_drv_uart.o(i.nrf_gpio_cfg) for nrf_gpio_cfg
    nrf_drv_uart.o(i.pins_to_default) refers to nrf_drv_uart.o(i.nrf_gpio_cfg_default) for nrf_gpio_cfg_default
    nrf_drv_uart.o(i.rx_byte) refers to nrf_drv_uart.o(.bss) for .bss
    nrf_drv_uart.o(i.rx_done_event) refers to nrf_drv_uart.o(.bss) for .bss
    nrf_drv_uart.o(i.tx_byte) refers to nrf_drv_uart.o(.bss) for .bss
    nrf_drv_uart.o(i.tx_done_event) refers to nrf_drv_uart.o(.bss) for .bss
    pstorage.o(i.app_notify) refers to pstorage.o(.bss) for .bss
    pstorage.o(i.app_notify) refers to pstorage.o(.data) for .data
    pstorage.o(i.app_notify_error_state_transit) refers to pstorage.o(i.app_notify) for app_notify
    pstorage.o(i.app_notify_error_state_transit) refers to pstorage.o(i.sm_state_change) for sm_state_change
    pstorage.o(i.app_notify_error_state_transit) refers to pstorage.o(.bss) for .bss
    pstorage.o(i.clear_operation_execute) refers to pstorage.o(i.pstorage_flash_page_size) for pstorage_flash_page_size
    pstorage.o(i.clear_operation_execute) refers to pstorage.o(i.sm_state_change) for sm_state_change
    pstorage.o(i.clear_operation_execute) refers to pstorage.o(.bss) for .bss
    pstorage.o(i.clear_operation_execute) refers to pstorage.o(.data) for .data
    pstorage.o(i.clear_post_processing_run) refers to pstorage.o(i.command_end_procedure_run) for command_end_procedure_run
    pstorage.o(i.clear_post_processing_run) refers to pstorage.o(i.sm_state_change) for sm_state_change
    pstorage.o(i.clear_post_processing_run) refers to pstorage.o(.bss) for .bss
    pstorage.o(i.cmd_process) refers to pstorage.o(i.clear_operation_execute) for clear_operation_execute
    pstorage.o(i.cmd_process) refers to pstorage.o(i.sm_state_change) for sm_state_change
    pstorage.o(i.cmd_process) refers to pstorage.o(.bss) for .bss
    pstorage.o(i.cmd_process) refers to pstorage.o(.data) for .data
    pstorage.o(i.cmd_queue_element_init) refers to pstorage.o(.bss) for .bss
    pstorage.o(i.cmd_queue_enqueue) refers to pstorage.o(i.cmd_process) for cmd_process
    pstorage.o(i.cmd_queue_enqueue) refers to pstorage.o(.bss) for .bss
    pstorage.o(i.cmd_queue_enqueue) refers to pstorage.o(.data) for .data
    pstorage.o(i.command_end_procedure_run) refers to pstorage.o(i.app_notify) for app_notify
    pstorage.o(i.command_end_procedure_run) refers to pstorage.o(i.cmd_queue_element_init) for cmd_queue_element_init
    pstorage.o(i.command_end_procedure_run) refers to pstorage.o(i.sm_state_change) for sm_state_change
    pstorage.o(i.command_end_procedure_run) refers to pstorage.o(.bss) for .bss
    pstorage.o(i.data_page_erase_state_run) refers to pstorage.o(i.is_page_erase_required) for is_page_erase_required
    pstorage.o(i.data_page_erase_state_run) refers to pstorage.o(i.swap_sub_state_state_change) for swap_sub_state_state_change
    pstorage.o(i.data_page_erase_state_run) refers to pstorage.o(i.clear_post_processing_run) for clear_post_processing_run
    pstorage.o(i.data_page_erase_state_run) refers to pstorage.o(i.swap_sub_state_err_busy_process) for swap_sub_state_err_busy_process
    pstorage.o(i.data_page_erase_state_run) refers to pstorage.o(.data) for .data
    pstorage.o(i.data_to_swap_write_state_run) refers to pstorage.o(i.swap_sub_state_state_change) for swap_sub_state_state_change
    pstorage.o(i.data_to_swap_write_state_run) refers to pstorage.o(i.swap_sub_state_err_busy_process) for swap_sub_state_err_busy_process
    pstorage.o(i.data_to_swap_write_state_run) refers to pstorage.o(.data) for .data
    pstorage.o(i.flash_api_err_code_process) refers to pstorage.o(i.app_notify_error_state_transit) for app_notify_error_state_transit
    pstorage.o(i.flash_api_err_code_process) refers to pstorage.o(.data) for .data
    pstorage.o(i.flash_operation_success_run) refers to pstorage.o(i.is_page_erase_required) for is_page_erase_required
    pstorage.o(i.flash_operation_success_run) refers to pstorage.o(i.sm_state_change) for sm_state_change
    pstorage.o(i.flash_operation_success_run) refers to pstorage.o(i.store_cmd_flash_write_execute) for store_cmd_flash_write_execute
    pstorage.o(i.flash_operation_success_run) refers to pstorage.o(i.command_end_procedure_run) for command_end_procedure_run
    pstorage.o(i.flash_operation_success_run) refers to pstorage.o(i.clear_post_processing_run) for clear_post_processing_run
    pstorage.o(i.flash_operation_success_run) refers to pstorage.o(i.main_state_err_busy_process) for main_state_err_busy_process
    pstorage.o(i.flash_operation_success_run) refers to pstorage.o(.data) for .data
    pstorage.o(i.flash_operation_success_run) refers to pstorage.o(.bss) for .bss
    pstorage.o(i.flash_operation_success_run) refers to pstorage.o(.constdata) for .constdata
    pstorage.o(i.flash_page_erase) refers to pstorage.o(i.flash_api_err_code_process) for flash_api_err_code_process
    pstorage.o(i.flash_write) refers to pstorage.o(i.flash_api_err_code_process) for flash_api_err_code_process
    pstorage.o(i.head_restore_state_run) refers to pstorage.o(i.pstorage_flash_page_size) for pstorage_flash_page_size
    pstorage.o(i.head_restore_state_run) refers to pstorage.o(i.is_page_erase_required) for is_page_erase_required
    pstorage.o(i.head_restore_state_run) refers to pstorage.o(i.swap_sub_state_state_change) for swap_sub_state_state_change
    pstorage.o(i.head_restore_state_run) refers to pstorage.o(i.clear_post_processing_run) for clear_post_processing_run
    pstorage.o(i.head_restore_state_run) refers to pstorage.o(i.swap_sub_state_err_busy_process) for swap_sub_state_err_busy_process
    pstorage.o(i.head_restore_state_run) refers to pstorage.o(.data) for .data
    pstorage.o(i.head_restore_state_run) refers to pstorage.o(.bss) for .bss
    pstorage.o(i.is_page_erase_required) refers to pstorage.o(i.pstorage_flash_page_size) for pstorage_flash_page_size
    pstorage.o(i.is_page_erase_required) refers to pstorage.o(.bss) for .bss
    pstorage.o(i.is_page_erase_required) refers to pstorage.o(.data) for .data
    pstorage.o(i.main_state_err_busy_process) refers to pstorage.o(i.sm_state_change) for sm_state_change
    pstorage.o(i.main_state_err_busy_process) refers to pstorage.o(.data) for .data
    pstorage.o(i.pstorage_access_status_get) refers to pstorage.o(.data) for .data
    pstorage.o(i.pstorage_access_status_get) refers to pstorage.o(.bss) for .bss
    pstorage.o(i.pstorage_block_identifier_get) refers to pstorage.o(.data) for .data
    pstorage.o(i.pstorage_block_identifier_get) refers to pstorage.o(.bss) for .bss
    pstorage.o(i.pstorage_clear) refers to pstorage.o(i.is_word_aligned) for is_word_aligned
    pstorage.o(i.pstorage_clear) refers to pstorage.o(i.cmd_queue_enqueue) for cmd_queue_enqueue
    pstorage.o(i.pstorage_clear) refers to pstorage.o(.data) for .data
    pstorage.o(i.pstorage_clear) refers to pstorage.o(.bss) for .bss
    pstorage.o(i.pstorage_init) refers to pstorage.o(i.cmd_queue_element_init) for cmd_queue_element_init
    pstorage.o(i.pstorage_init) refers to pstorage.o(i.pstorage_flash_page_size) for pstorage_flash_page_size
    pstorage.o(i.pstorage_init) refers to pstorage.o(.bss) for .bss
    pstorage.o(i.pstorage_init) refers to pstorage.o(.data) for .data
    pstorage.o(i.pstorage_load) refers to pstorage.o(i.is_word_aligned) for is_word_aligned
    pstorage.o(i.pstorage_load) refers to memcpya.o(.text) for __aeabi_memcpy
    pstorage.o(i.pstorage_load) refers to pstorage.o(.data) for .data
    pstorage.o(i.pstorage_load) refers to pstorage.o(.bss) for .bss
    pstorage.o(i.pstorage_register) refers to pstorage.o(i.pstorage_flash_page_size) for pstorage_flash_page_size
    pstorage.o(i.pstorage_register) refers to pstorage.o(.data) for .data
    pstorage.o(i.pstorage_register) refers to pstorage.o(.bss) for .bss
    pstorage.o(i.pstorage_store) refers to pstorage.o(i.is_word_aligned) for is_word_aligned
    pstorage.o(i.pstorage_store) refers to pstorage.o(i.cmd_queue_enqueue) for cmd_queue_enqueue
    pstorage.o(i.pstorage_store) refers to pstorage.o(.data) for .data
    pstorage.o(i.pstorage_store) refers to pstorage.o(.bss) for .bss
    pstorage.o(i.pstorage_sys_event_handler) refers to pstorage.o(i.sm_state_change) for sm_state_change
    pstorage.o(i.pstorage_sys_event_handler) refers to pstorage.o(i.swap_sub_state_state_change) for swap_sub_state_state_change
    pstorage.o(i.pstorage_sys_event_handler) refers to pstorage.o(i.app_notify_error_state_transit) for app_notify_error_state_transit
    pstorage.o(i.pstorage_sys_event_handler) refers to pstorage.o(i.flash_operation_success_run) for flash_operation_success_run
    pstorage.o(i.pstorage_sys_event_handler) refers to pstorage.o(.data) for .data
    pstorage.o(i.pstorage_update) refers to pstorage.o(i.is_word_aligned) for is_word_aligned
    pstorage.o(i.pstorage_update) refers to pstorage.o(i.cmd_queue_enqueue) for cmd_queue_enqueue
    pstorage.o(i.pstorage_update) refers to pstorage.o(.data) for .data
    pstorage.o(i.pstorage_update) refers to pstorage.o(.bss) for .bss
    pstorage.o(i.sm_state_change) refers to pstorage.o(i.flash_page_erase) for flash_page_erase
    pstorage.o(i.sm_state_change) refers to pstorage.o(i.cmd_process) for cmd_process
    pstorage.o(i.sm_state_change) refers to pstorage.o(i.store_cmd_flash_write_execute) for store_cmd_flash_write_execute
    pstorage.o(i.sm_state_change) refers to pstorage.o(i.state_data_erase_swap_entry_run) for state_data_erase_swap_entry_run
    pstorage.o(i.sm_state_change) refers to pstorage.o(.data) for .data
    pstorage.o(i.sm_state_change) refers to pstorage.o(.bss) for .bss
    pstorage.o(i.state_data_erase_swap_entry_run) refers to pstorage.o(i.pstorage_flash_page_size) for pstorage_flash_page_size
    pstorage.o(i.state_data_erase_swap_entry_run) refers to pstorage.o(i.swap_sub_state_state_change) for swap_sub_state_state_change
    pstorage.o(i.state_data_erase_swap_entry_run) refers to pstorage.o(.data) for .data
    pstorage.o(i.state_data_erase_swap_entry_run) refers to pstorage.o(.bss) for .bss
    pstorage.o(i.state_erase_data_page_entry_run) refers to pstorage.o(i.flash_page_erase) for flash_page_erase
    pstorage.o(i.state_erase_data_page_entry_run) refers to pstorage.o(.data) for .data
    pstorage.o(i.state_restore_head_entry_run) refers to pstorage.o(i.pstorage_flash_page_size) for pstorage_flash_page_size
    pstorage.o(i.state_restore_head_entry_run) refers to pstorage.o(i.flash_write) for flash_write
    pstorage.o(i.state_restore_head_entry_run) refers to pstorage.o(.data) for .data
    pstorage.o(i.state_restore_tail_entry_run) refers to pstorage.o(i.pstorage_flash_page_size) for pstorage_flash_page_size
    pstorage.o(i.state_restore_tail_entry_run) refers to pstorage.o(i.flash_write) for flash_write
    pstorage.o(i.state_restore_tail_entry_run) refers to pstorage.o(.bss) for .bss
    pstorage.o(i.state_restore_tail_entry_run) refers to pstorage.o(.data) for .data
    pstorage.o(i.state_swap_erase_entry_run) refers to pstorage.o(i.pstorage_flash_page_size) for pstorage_flash_page_size
    pstorage.o(i.state_swap_erase_entry_run) refers to pstorage.o(i.flash_page_erase) for flash_page_erase
    pstorage.o(i.state_write_data_swap_entry_run) refers to pstorage.o(i.pstorage_flash_page_size) for pstorage_flash_page_size
    pstorage.o(i.state_write_data_swap_entry_run) refers to pstorage.o(i.flash_write) for flash_write
    pstorage.o(i.state_write_data_swap_entry_run) refers to pstorage.o(.data) for .data
    pstorage.o(i.store_cmd_flash_write_execute) refers to pstorage.o(i.pstorage_flash_page_size) for pstorage_flash_page_size
    pstorage.o(i.store_cmd_flash_write_execute) refers to pstorage.o(i.flash_write) for flash_write
    pstorage.o(i.store_cmd_flash_write_execute) refers to pstorage.o(.bss) for .bss
    pstorage.o(i.store_cmd_flash_write_execute) refers to pstorage.o(.data) for .data
    pstorage.o(i.swap_erase_state_run) refers to pstorage.o(i.swap_sub_state_state_change) for swap_sub_state_state_change
    pstorage.o(i.swap_erase_state_run) refers to pstorage.o(i.swap_sub_state_err_busy_process) for swap_sub_state_err_busy_process
    pstorage.o(i.swap_erase_state_run) refers to pstorage.o(.data) for .data
    pstorage.o(i.swap_sub_state_err_busy_process) refers to pstorage.o(i.swap_sub_state_state_change) for swap_sub_state_state_change
    pstorage.o(i.swap_sub_state_err_busy_process) refers to pstorage.o(.data) for .data
    pstorage.o(i.swap_sub_state_state_change) refers to pstorage.o(.data) for .data
    pstorage.o(i.swap_sub_state_state_change) refers to pstorage.o(.constdata) for .constdata
    pstorage.o(i.tail_restore_state_run) refers to pstorage.o(i.clear_post_processing_run) for clear_post_processing_run
    pstorage.o(i.tail_restore_state_run) refers to pstorage.o(i.swap_sub_state_err_busy_process) for swap_sub_state_err_busy_process
    pstorage.o(i.tail_restore_state_run) refers to pstorage.o(.data) for .data
    pstorage.o(.constdata) refers to pstorage.o(i.state_swap_erase_entry_run) for state_swap_erase_entry_run
    pstorage.o(.constdata) refers to pstorage.o(i.state_write_data_swap_entry_run) for state_write_data_swap_entry_run
    pstorage.o(.constdata) refers to pstorage.o(i.state_erase_data_page_entry_run) for state_erase_data_page_entry_run
    pstorage.o(.constdata) refers to pstorage.o(i.state_restore_tail_entry_run) for state_restore_tail_entry_run
    pstorage.o(.constdata) refers to pstorage.o(i.state_restore_head_entry_run) for state_restore_head_entry_run
    pstorage.o(.constdata) refers to pstorage.o(i.swap_erase_state_run) for swap_erase_state_run
    pstorage.o(.constdata) refers to pstorage.o(i.data_to_swap_write_state_run) for data_to_swap_write_state_run
    pstorage.o(.constdata) refers to pstorage.o(i.data_page_erase_state_run) for data_page_erase_state_run
    pstorage.o(.constdata) refers to pstorage.o(i.tail_restore_state_run) for tail_restore_state_run
    pstorage.o(.constdata) refers to pstorage.o(i.head_restore_state_run) for head_restore_state_run
    coap.o(i.app_error_notify) refers to coap.o(.data) for .data
    coap.o(i.coap_error_handler_register) refers to coap.o(.data) for .data
    coap.o(i.coap_init) refers to coap_transport_ipv6.o(i.coap_transport_init) for coap_transport_init
    coap.o(i.coap_init) refers to coap_queue.o(i.coap_queue_init) for coap_queue_init
    coap.o(i.coap_init) refers to coap_resource.o(i.coap_resource_init) for coap_resource_init
    coap.o(i.coap_init) refers to coap.o(.data) for .data
    coap.o(i.coap_message_delete) refers to mem_manager.o(i.nrf_free) for nrf_free
    coap.o(i.coap_message_new) refers to mem_manager.o(i.nrf_mem_reserve) for nrf_mem_reserve
    coap.o(i.coap_message_new) refers to memseta.o(.text) for __aeabi_memclr4
    coap.o(i.coap_message_new) refers to mem_manager.o(i.nrf_free) for nrf_free
    coap.o(i.coap_message_new) refers to coap_message.o(i.coap_message_create) for coap_message_create
    coap.o(i.coap_message_new) refers to coap.o(.data) for .data
    coap.o(i.coap_message_send) refers to coap.o(i.internal_coap_message_send) for internal_coap_message_send
    coap.o(i.coap_request_handler_register) refers to coap.o(.data) for .data
    coap.o(i.coap_time_tick) refers to coap_transport_ipv6.o(i.coap_transport_process) for coap_transport_process
    coap.o(i.coap_time_tick) refers to coap_queue.o(i.coap_queue_item_next_get) for coap_queue_item_next_get
    coap.o(i.coap_time_tick) refers to coap_transport_ipv6.o(i.coap_transport_write) for coap_transport_write
    coap.o(i.coap_time_tick) refers to coap.o(i.app_error_notify) for app_error_notify
    coap.o(i.coap_time_tick) refers to mem_manager.o(i.nrf_free) for nrf_free
    coap.o(i.coap_time_tick) refers to coap_queue.o(i.coap_queue_remove) for coap_queue_remove
    coap.o(i.coap_transport_read) refers to mem_manager.o(i.nrf_mem_reserve) for nrf_mem_reserve
    coap.o(i.coap_transport_read) refers to memseta.o(.text) for __aeabi_memclr4
    coap.o(i.coap_transport_read) refers to coap_message.o(i.coap_message_decode) for coap_message_decode
    coap.o(i.coap_transport_read) refers to memcpya.o(.text) for __aeabi_memcpy
    coap.o(i.coap_transport_read) refers to coap.o(i.app_error_notify) for app_error_notify
    coap.o(i.coap_transport_read) refers to coap.o(i.is_ack) for is_ack
    coap.o(i.coap_transport_read) refers to coap.o(i.internal_coap_message_send) for internal_coap_message_send
    coap.o(i.coap_transport_read) refers to coap_queue.o(i.coap_queue_item_by_mid_get) for coap_queue_item_by_mid_get
    coap.o(i.coap_transport_read) refers to mem_manager.o(i.nrf_free) for nrf_free
    coap.o(i.coap_transport_read) refers to coap.o(i.is_request) for is_request
    coap.o(i.coap_transport_read) refers to coap_queue.o(i.coap_queue_item_by_token_get) for coap_queue_item_by_token_get
    coap.o(i.coap_transport_read) refers to coap_queue.o(i.coap_queue_remove) for coap_queue_remove
    coap.o(i.coap_transport_read) refers to coap.o(i.send_error_response) for send_error_response
    coap.o(i.coap_transport_read) refers to coap_resource.o(i.coap_resource_get) for coap_resource_get
    coap.o(i.coap_transport_read) refers to coap.o(.data) for .data
    coap.o(i.create_response) refers to mem_manager.o(i.nrf_mem_reserve) for nrf_mem_reserve
    coap.o(i.create_response) refers to memseta.o(.text) for __aeabi_memclr4
    coap.o(i.create_response) refers to memcpya.o(.text) for __aeabi_memcpy4
    coap.o(i.create_response) refers to coap_message.o(i.coap_message_create) for coap_message_create
    coap.o(i.create_response) refers to coap_message.o(i.coap_message_remote_addr_set) for coap_message_remote_addr_set
    coap.o(i.internal_coap_message_send) refers to coap_message.o(i.coap_message_encode) for coap_message_encode
    coap.o(i.internal_coap_message_send) refers to mem_manager.o(i.nrf_mem_reserve) for nrf_mem_reserve
    coap.o(i.internal_coap_message_send) refers to memseta.o(.text) for __aeabi_memclr
    coap.o(i.internal_coap_message_send) refers to mem_manager.o(i.nrf_free) for nrf_free
    coap.o(i.internal_coap_message_send) refers to coap_transport_ipv6.o(i.coap_transport_write) for coap_transport_write
    coap.o(i.internal_coap_message_send) refers to coap.o(i.is_request) for is_request
    coap.o(i.internal_coap_message_send) refers to memcpya.o(.text) for __aeabi_memcpy4
    coap.o(i.internal_coap_message_send) refers to coap_queue.o(i.coap_queue_add) for coap_queue_add
    coap.o(i.send_error_response) refers to coap.o(i.create_response) for create_response
    coap.o(i.send_error_response) refers to coap.o(i.app_error_notify) for app_error_notify
    coap.o(i.send_error_response) refers to coap.o(i.internal_coap_message_send) for internal_coap_message_send
    coap.o(i.send_error_response) refers to mem_manager.o(i.nrf_free) for nrf_free
    coap_message.o(i.coap_message_accept_mask_get) refers to coap_option.o(i.coap_opt_uint_decode) for coap_opt_uint_decode
    coap_message.o(i.coap_message_accept_mask_get) refers to coap_message.o(i.content_format_to_bit) for content_format_to_bit
    coap_message.o(i.coap_message_ct_mask_get) refers to coap_option.o(i.coap_opt_uint_decode) for coap_opt_uint_decode
    coap_message.o(i.coap_message_ct_mask_get) refers to coap_message.o(i.content_format_to_bit) for content_format_to_bit
    coap_message.o(i.coap_message_ct_match_select) refers to coap_message.o(i.coap_message_accept_mask_get) for coap_message_accept_mask_get
    coap_message.o(i.coap_message_decode) refers to coap_message.o(i.decode_option) for decode_option
    coap_message.o(i.coap_message_encode) refers to coap_message.o(i.encode_option) for encode_option
    coap_message.o(i.coap_message_encode) refers to memcpya.o(.text) for __aeabi_memcpy
    coap_message.o(i.coap_message_opt_empty_add) refers to coap_message.o(i.encode_option) for encode_option
    coap_message.o(i.coap_message_opt_opaque_add) refers to memcpya.o(.text) for __aeabi_memcpy
    coap_message.o(i.coap_message_opt_opaque_add) refers to coap_message.o(i.encode_option) for encode_option
    coap_message.o(i.coap_message_opt_str_add) refers to coap_option.o(i.coap_opt_string_encode) for coap_opt_string_encode
    coap_message.o(i.coap_message_opt_str_add) refers to coap_message.o(i.encode_option) for encode_option
    coap_message.o(i.coap_message_opt_uint_add) refers to coap_option.o(i.coap_opt_uint_encode) for coap_opt_uint_encode
    coap_message.o(i.coap_message_opt_uint_add) refers to coap_message.o(i.encode_option) for encode_option
    coap_message.o(i.coap_message_payload_set) refers to memcpya.o(.text) for __aeabi_memcpy
    coap_message.o(i.coap_message_remote_addr_set) refers to memcpya.o(.text) for __aeabi_memcpy
    coap_message.o(i.encode_option) refers to memcpya.o(.text) for __aeabi_memcpy
    coap_option.o(i.coap_opt_string_encode) refers to memcpya.o(.text) for __aeabi_memcpy
    coap_queue.o(i.coap_queue_add) refers to memcpya.o(.text) for __aeabi_memcpy4
    coap_queue.o(i.coap_queue_add) refers to coap_queue.o(.data) for .data
    coap_queue.o(i.coap_queue_add) refers to coap_queue.o(.bss) for .bss
    coap_queue.o(i.coap_queue_init) refers to memseta.o(.text) for __aeabi_memclr4
    coap_queue.o(i.coap_queue_init) refers to coap_queue.o(.bss) for .bss
    coap_queue.o(i.coap_queue_init) refers to coap_queue.o(.data) for .data
    coap_queue.o(i.coap_queue_item_by_mid_get) refers to coap_queue.o(.bss) for .bss
    coap_queue.o(i.coap_queue_item_by_token_get) refers to memcmp.o(.text) for memcmp
    coap_queue.o(i.coap_queue_item_by_token_get) refers to coap_queue.o(.bss) for .bss
    coap_queue.o(i.coap_queue_item_next_get) refers to coap_queue.o(.bss) for .bss
    coap_queue.o(i.coap_queue_remove) refers to memseta.o(.text) for __aeabi_memclr4
    coap_queue.o(i.coap_queue_remove) refers to coap_queue.o(.bss) for .bss
    coap_queue.o(i.coap_queue_remove) refers to coap_queue.o(.data) for .data
    coap_resource.o(i.coap_resource_create) refers to strlen.o(.text) for strlen
    coap_resource.o(i.coap_resource_create) refers to memcpya.o(.text) for __aeabi_memcpy
    coap_resource.o(i.coap_resource_create) refers to coap_resource.o(.data) for .data
    coap_resource.o(i.coap_resource_get) refers to strlen.o(.text) for strlen
    coap_resource.o(i.coap_resource_get) refers to strncmp.o(.text) for strncmp
    coap_resource.o(i.coap_resource_get) refers to coap_resource.o(.data) for .data
    coap_resource.o(i.coap_resource_init) refers to coap_resource.o(.data) for .data
    coap_resource.o(i.coap_resource_root_get) refers to coap_resource.o(.data) for .data
    coap_resource.o(i.coap_resource_well_known_generate) refers to memseta.o(.text) for __aeabi_memclr
    coap_resource.o(i.coap_resource_well_known_generate) refers to coap_resource.o(i.generate_path) for generate_path
    coap_resource.o(i.coap_resource_well_known_generate) refers to strlen.o(.text) for strlen
    coap_resource.o(i.coap_resource_well_known_generate) refers to coap_resource.o(.data) for .data
    coap_resource.o(i.generate_path) refers to strlen.o(.text) for strlen
    coap_resource.o(i.generate_path) refers to memcpya.o(.text) for __aeabi_memcpy
    coap_resource.o(i.generate_path) refers to coap_resource.o(.bss) for .bss
    coap_transport_ipv6.o(i.coap_transport_init) refers to udp6.o(i.udp6_socket_allocate) for udp6_socket_allocate
    coap_transport_ipv6.o(i.coap_transport_init) refers to udp6.o(i.udp6_socket_bind) for udp6_socket_bind
    coap_transport_ipv6.o(i.coap_transport_init) refers to udp6.o(i.udp6_socket_recv) for udp6_socket_recv
    coap_transport_ipv6.o(i.coap_transport_init) refers to udp6.o(i.udp6_socket_free) for udp6_socket_free
    coap_transport_ipv6.o(i.coap_transport_init) refers to udp6.o(i.udp6_socket_app_data_set) for udp6_socket_app_data_set
    coap_transport_ipv6.o(i.coap_transport_init) refers to ipv6.o(.bss) for ipv6_addr_any
    coap_transport_ipv6.o(i.coap_transport_init) refers to coap_transport_ipv6.o(i.port_data_callback) for port_data_callback
    coap_transport_ipv6.o(i.coap_transport_init) refers to coap_transport_ipv6.o(.data) for .data
    coap_transport_ipv6.o(i.coap_transport_write) refers to memcpya.o(.text) for __aeabi_memcpy
    coap_transport_ipv6.o(i.coap_transport_write) refers to iot_pbuffer.o(i.iot_pbuffer_allocate) for iot_pbuffer_allocate
    coap_transport_ipv6.o(i.coap_transport_write) refers to udp6.o(i.udp6_socket_sendto) for udp6_socket_sendto
    coap_transport_ipv6.o(i.coap_transport_write) refers to iot_pbuffer.o(i.iot_pbuffer_free) for iot_pbuffer_free
    coap_transport_ipv6.o(i.coap_transport_write) refers to coap_transport_ipv6.o(.data) for .data
    coap_transport_ipv6.o(i.port_data_callback) refers to coap.o(i.coap_transport_read) for coap_transport_read
    coap_transport_ipv6.o(i.port_data_callback) refers to coap_transport_ipv6.o(.data) for .data
    icmp6.o(i.echo_reply_send) refers to iot_pbuffer.o(i.iot_pbuffer_allocate) for iot_pbuffer_allocate
    icmp6.o(i.echo_reply_send) refers to icmp6.o(i.icmp_ip_header) for icmp_ip_header
    icmp6.o(i.echo_reply_send) refers to memcpya.o(.text) for __aeabi_memcpy
    icmp6.o(i.echo_reply_send) refers to ipv6_utils.o(i.ipv6_checksum_calculate) for ipv6_checksum_calculate
    icmp6.o(i.echo_reply_send) refers to ipv6.o(i.ipv6_send) for ipv6_send
    icmp6.o(i.icmp6_echo_request) refers to icmp6.o(i.icmp_ip_header) for icmp_ip_header
    icmp6.o(i.icmp6_echo_request) refers to ipv6_utils.o(i.ipv6_checksum_calculate) for ipv6_checksum_calculate
    icmp6.o(i.icmp6_echo_request) refers to ipv6.o(i.ipv6_send) for ipv6_send
    icmp6.o(i.icmp6_echo_request) refers to icmp6.o(.data) for .data
    icmp6.o(i.icmp6_init) refers to icmp6.o(.data) for .data
    icmp6.o(i.icmp6_input) refers to ipv6_utils.o(i.ipv6_checksum_calculate) for ipv6_checksum_calculate
    icmp6.o(i.icmp6_input) refers to icmp6.o(i.ra_input) for ra_input
    icmp6.o(i.icmp6_input) refers to icmp6.o(i.echo_reply_send) for echo_reply_send
    icmp6.o(i.icmp6_input) refers to icmp6.o(.data) for .data
    icmp6.o(i.icmp6_ns_send) refers to iot_pbuffer.o(i.iot_pbuffer_allocate) for iot_pbuffer_allocate
    icmp6.o(i.icmp6_ns_send) refers to icmp6.o(i.icmp_ip_header) for icmp_ip_header
    icmp6.o(i.icmp6_ns_send) refers to icmp6.o(i.add_sllao_opt) for add_sllao_opt
    icmp6.o(i.icmp6_ns_send) refers to ipv6_utils.o(i.ipv6_checksum_calculate) for ipv6_checksum_calculate
    icmp6.o(i.icmp6_ns_send) refers to ipv6.o(i.ipv6_send) for ipv6_send
    icmp6.o(i.icmp6_ns_send) refers to icmp6.o(.data) for .data
    icmp6.o(i.icmp6_receive_register) refers to icmp6.o(.data) for .data
    icmp6.o(i.icmp6_rs_send) refers to iot_pbuffer.o(i.iot_pbuffer_allocate) for iot_pbuffer_allocate
    icmp6.o(i.icmp6_rs_send) refers to icmp6.o(i.icmp_ip_header) for icmp_ip_header
    icmp6.o(i.icmp6_rs_send) refers to icmp6.o(i.add_sllao_opt) for add_sllao_opt
    icmp6.o(i.icmp6_rs_send) refers to ipv6_utils.o(i.ipv6_checksum_calculate) for ipv6_checksum_calculate
    icmp6.o(i.icmp6_rs_send) refers to ipv6.o(i.ipv6_send) for ipv6_send
    icmp6.o(i.icmp6_rs_send) refers to icmp6.o(.data) for .data
    icmp6.o(i.icmp_ip_header) refers to ipv6_utils.o(i.ipv6_header_init) for ipv6_header_init
    icmp6.o(i.ra_input) refers to memcpya.o(.text) for __aeabi_memcpy4
    icmp6.o(i.ra_input) refers to ipv6.o(i.ipv6_address_set) for ipv6_address_set
    icmp6.o(i.ra_input) refers to ipv6.o(i.ipv6_address_remove) for ipv6_address_remove
    icmp6.o(i.ra_input) refers to iot_context_manager.o(i.iot_context_manager_update) for iot_context_manager_update
    icmp6.o(i.ra_input) refers to iot_context_manager.o(i.iot_context_manager_get_by_cid) for iot_context_manager_get_by_cid
    icmp6.o(i.ra_input) refers to iot_context_manager.o(i.iot_context_manager_remove) for iot_context_manager_remove
    iot_context_manager.o(i.context_find_by_cid) refers to iot_context_manager.o(.bss) for .bss
    iot_context_manager.o(i.context_find_by_prefix) refers to memcmp.o(.text) for memcmp
    iot_context_manager.o(i.context_find_by_prefix) refers to iot_context_manager.o(.bss) for .bss
    iot_context_manager.o(i.context_table_find) refers to iot_context_manager.o(.bss) for .bss
    iot_context_manager.o(i.context_table_init) refers to iot_context_manager.o(i.context_init) for context_init
    iot_context_manager.o(i.context_table_init) refers to iot_context_manager.o(.bss) for .bss
    iot_context_manager.o(i.iot_context_manager_get_by_addr) refers to iot_context_manager.o(i.context_table_find) for context_table_find
    iot_context_manager.o(i.iot_context_manager_get_by_addr) refers to iot_context_manager.o(i.context_find_by_prefix) for context_find_by_prefix
    iot_context_manager.o(i.iot_context_manager_get_by_addr) refers to iot_context_manager.o(.data) for .data
    iot_context_manager.o(i.iot_context_manager_get_by_cid) refers to iot_context_manager.o(i.context_table_find) for context_table_find
    iot_context_manager.o(i.iot_context_manager_get_by_cid) refers to iot_context_manager.o(i.context_find_by_cid) for context_find_by_cid
    iot_context_manager.o(i.iot_context_manager_get_by_cid) refers to iot_context_manager.o(.data) for .data
    iot_context_manager.o(i.iot_context_manager_init) refers to iot_context_manager.o(i.context_table_init) for context_table_init
    iot_context_manager.o(i.iot_context_manager_init) refers to iot_context_manager.o(.data) for .data
    iot_context_manager.o(i.iot_context_manager_remove) refers to iot_context_manager.o(i.context_table_find) for context_table_find
    iot_context_manager.o(i.iot_context_manager_remove) refers to iot_context_manager.o(i.context_init) for context_init
    iot_context_manager.o(i.iot_context_manager_remove) refers to iot_context_manager.o(.data) for .data
    iot_context_manager.o(i.iot_context_manager_remove) refers to iot_context_manager.o(.bss) for .bss
    iot_context_manager.o(i.iot_context_manager_table_alloc) refers to iot_context_manager.o(i.context_table_find) for context_table_find
    iot_context_manager.o(i.iot_context_manager_table_alloc) refers to iot_context_manager.o(.data) for .data
    iot_context_manager.o(i.iot_context_manager_table_alloc) refers to iot_context_manager.o(.bss) for .bss
    iot_context_manager.o(i.iot_context_manager_table_free) refers to iot_context_manager.o(i.context_table_find) for context_table_find
    iot_context_manager.o(i.iot_context_manager_table_free) refers to iot_context_manager.o(i.context_table_init) for context_table_init
    iot_context_manager.o(i.iot_context_manager_table_free) refers to iot_context_manager.o(.data) for .data
    iot_context_manager.o(i.iot_context_manager_update) refers to iot_context_manager.o(i.context_table_find) for context_table_find
    iot_context_manager.o(i.iot_context_manager_update) refers to iot_context_manager.o(i.context_find_by_cid) for context_find_by_cid
    iot_context_manager.o(i.iot_context_manager_update) refers to memcpya.o(.text) for __aeabi_memcpy4
    iot_context_manager.o(i.iot_context_manager_update) refers to iot_context_manager.o(.data) for .data
    iot_context_manager.o(i.iot_context_manager_update) refers to iot_context_manager.o(.bss) for .bss
    iot_pbuffer.o(i.iot_pbuffer_allocate) refers to iot_pbuffer.o(i.type_offset_get) for type_offset_get
    iot_pbuffer.o(i.iot_pbuffer_allocate) refers to iot_pbuffer.o(i.pbuffer_allocate) for pbuffer_allocate
    iot_pbuffer.o(i.iot_pbuffer_allocate) refers to iot_pbuffer.o(.data) for .data
    iot_pbuffer.o(i.iot_pbuffer_free) refers to iot_pbuffer.o(i.pbuffer_find) for pbuffer_find
    iot_pbuffer.o(i.iot_pbuffer_free) refers to mem_manager.o(i.nrf_free) for nrf_free
    iot_pbuffer.o(i.iot_pbuffer_free) refers to iot_pbuffer.o(i.pbuffer_init) for pbuffer_init
    iot_pbuffer.o(i.iot_pbuffer_free) refers to iot_pbuffer.o(.data) for .data
    iot_pbuffer.o(i.iot_pbuffer_init) refers to iot_pbuffer.o(i.pbuffer_init) for pbuffer_init
    iot_pbuffer.o(i.iot_pbuffer_init) refers to iot_pbuffer.o(.bss) for .bss
    iot_pbuffer.o(i.iot_pbuffer_init) refers to iot_pbuffer.o(.data) for .data
    iot_pbuffer.o(i.iot_pbuffer_reallocate) refers to iot_pbuffer.o(i.pbuffer_find) for pbuffer_find
    iot_pbuffer.o(i.iot_pbuffer_reallocate) refers to iot_pbuffer.o(i.type_offset_get) for type_offset_get
    iot_pbuffer.o(i.iot_pbuffer_reallocate) refers to mem_manager.o(i.nrf_mem_reserve) for nrf_mem_reserve
    iot_pbuffer.o(i.iot_pbuffer_reallocate) refers to memcpya.o(.text) for __aeabi_memcpy
    iot_pbuffer.o(i.iot_pbuffer_reallocate) refers to mem_manager.o(i.nrf_free) for nrf_free
    iot_pbuffer.o(i.iot_pbuffer_reallocate) refers to iot_pbuffer.o(.data) for .data
    iot_pbuffer.o(i.pbuffer_allocate) refers to mem_manager.o(i.nrf_mem_reserve) for nrf_mem_reserve
    iot_pbuffer.o(i.pbuffer_allocate) refers to iot_pbuffer.o(.bss) for .bss
    iot_pbuffer.o(i.pbuffer_find) refers to iot_pbuffer.o(.bss) for .bss
    iot_timer.o(i.iot_timer_client_list_set) refers to iot_timer.o(.data) for .data
    iot_timer.o(i.iot_timer_update) refers to iot_timer.o(.data) for .data
    iot_timer.o(i.iot_timer_wall_clock_delta_get) refers to iot_timer.o(.data) for .data
    iot_timer.o(i.iot_timer_wall_clock_get) refers to iot_timer.o(.data) for .data
    ipv6.o(i.addr_check) refers to memcmp.o(.text) for memcmp
    ipv6.o(i.addr_check) refers to ipv6.o(.data) for .data
    ipv6.o(i.addr_check) refers to ipv6.o(.bss) for .bss
    ipv6.o(i.addr_free) refers to ipv6.o(.data) for .data
    ipv6.o(i.addr_free) refers to ipv6.o(.bss) for .bss
    ipv6.o(i.addr_set) refers to memcmp.o(.text) for memcmp
    ipv6.o(i.addr_set) refers to ipv6.o(.bss) for .bss
    ipv6.o(i.addr_set) refers to ipv6.o(.data) for .data
    ipv6.o(i.ble_6lowpan_evt_handler) refers to ipv6.o(i.addr_set) for addr_set
    ipv6.o(i.ble_6lowpan_evt_handler) refers to iot_context_manager.o(i.iot_context_manager_table_alloc) for iot_context_manager_table_alloc
    ipv6.o(i.ble_6lowpan_evt_handler) refers to iot_context_manager.o(i.iot_context_manager_table_free) for iot_context_manager_table_free
    ipv6.o(i.ble_6lowpan_evt_handler) refers to ipv6.o(i.interface_reset) for interface_reset
    ipv6.o(i.ble_6lowpan_evt_handler) refers to ipv6.o(i.addr_check) for addr_check
    ipv6.o(i.ble_6lowpan_evt_handler) refers to iot_pbuffer.o(i.iot_pbuffer_allocate) for iot_pbuffer_allocate
    ipv6.o(i.ble_6lowpan_evt_handler) refers to mem_manager.o(i.nrf_free) for nrf_free
    ipv6.o(i.ble_6lowpan_evt_handler) refers to ipv6.o(i.ipv6_input) for ipv6_input
    ipv6.o(i.ble_6lowpan_evt_handler) refers to ipv6.o(.data) for .data
    ipv6.o(i.interface_reset) refers to ipv6.o(i.addr_free) for addr_free
    ipv6.o(i.ipv6_address_find_best_match) refers to ipv6.o(.data) for .data
    ipv6.o(i.ipv6_address_find_best_match) refers to ipv6.o(.bss) for .bss
    ipv6.o(i.ipv6_address_remove) refers to memcmp.o(.text) for memcmp
    ipv6.o(i.ipv6_address_remove) refers to ipv6.o(i.addr_free) for addr_free
    ipv6.o(i.ipv6_address_remove) refers to ipv6.o(.data) for .data
    ipv6.o(i.ipv6_address_remove) refers to ipv6.o(.bss) for .bss
    ipv6.o(i.ipv6_address_set) refers to ipv6.o(i.addr_set) for addr_set
    ipv6.o(i.ipv6_address_set) refers to ipv6.o(.data) for .data
    ipv6.o(i.ipv6_init) refers to mem_manager.o(i.nrf_mem_init) for nrf_mem_init
    ipv6.o(i.ipv6_init) refers to iot_pbuffer.o(i.iot_pbuffer_init) for iot_pbuffer_init
    ipv6.o(i.ipv6_init) refers to udp6.o(i.udp_init) for udp_init
    ipv6.o(i.ipv6_init) refers to icmp6.o(i.icmp6_init) for icmp6_init
    ipv6.o(i.ipv6_init) refers to iot_context_manager.o(i.iot_context_manager_init) for iot_context_manager_init
    ipv6.o(i.ipv6_init) refers to ipv6.o(i.interface_reset) for interface_reset
    ipv6.o(i.ipv6_init) refers to ipv6.o(i.addr_free) for addr_free
    ipv6.o(i.ipv6_init) refers to ble_6lowpan.o(i.ble_6lowpan_init) for ble_6lowpan_init
    ipv6.o(i.ipv6_init) refers to ipv6.o(.bss) for .bss
    ipv6.o(i.ipv6_init) refers to ipv6.o(.data) for .data
    ipv6.o(i.ipv6_init) refers to ipv6.o(i.ble_6lowpan_evt_handler) for ble_6lowpan_evt_handler
    ipv6.o(i.ipv6_input) refers to iot_pbuffer.o(i.iot_pbuffer_free) for iot_pbuffer_free
    ipv6.o(i.ipv6_input) refers to icmp6.o(i.icmp6_input) for icmp6_input
    ipv6.o(i.ipv6_input) refers to udp6.o(i.udp_input) for udp_input
    ipv6.o(i.ipv6_input) refers to ipv6.o(.data) for .data
    ipv6.o(i.ipv6_send) refers to ble_6lowpan.o(i.ble_6lowpan_interface_send) for ble_6lowpan_interface_send
    ipv6.o(i.ipv6_send) refers to iot_pbuffer.o(i.iot_pbuffer_free) for iot_pbuffer_free
    ipv6.o(i.ipv6_send) refers to ipv6.o(.data) for .data
    ipv6_medium_ble.o(i.adv_params_apply) refers to ble_advdata.o(i.ble_advdata_set) for ble_advdata_set
    ipv6_medium_ble.o(i.adv_params_apply) refers to main.o(i.app_error_handler) for app_error_handler
    ipv6_medium_ble.o(i.adv_params_apply) refers to ipv6_medium_ble.o(.data) for .data
    ipv6_medium_ble.o(i.ble_evt_dispatch) refers to commissioning.o(i.commissioning_ble_evt_handler) for commissioning_ble_evt_handler
    ipv6_medium_ble.o(i.ble_evt_dispatch) refers to ble_ncfgs.o(i.ble_ncfgs_ble_evt_handler) for ble_ncfgs_ble_evt_handler
    ipv6_medium_ble.o(i.ble_evt_dispatch) refers to ipv6_medium_ble.o(i.on_ble_evt) for on_ble_evt
    ipv6_medium_ble.o(i.ble_stack_init) refers to softdevice_handler.o(i.softdevice_handler_init) for softdevice_handler_init
    ipv6_medium_ble.o(i.ble_stack_init) refers to main.o(i.app_error_handler) for app_error_handler
    ipv6_medium_ble.o(i.ble_stack_init) refers to softdevice_handler.o(i.softdevice_ble_evt_handler_set) for softdevice_ble_evt_handler_set
    ipv6_medium_ble.o(i.ble_stack_init) refers to softdevice_handler.o(i.softdevice_sys_evt_handler_set) for softdevice_sys_evt_handler_set
    ipv6_medium_ble.o(i.ble_stack_init) refers to ipv6_medium_ble.o(.data) for .data
    ipv6_medium_ble.o(i.ble_stack_init) refers to ipv6_medium_ble.o(.bss) for .bss
    ipv6_medium_ble.o(i.ble_stack_init) refers to ipv6_medium_ble.o(i.ble_evt_dispatch) for ble_evt_dispatch
    ipv6_medium_ble.o(i.ble_stack_init) refers to ipv6_medium_ble.o(i.sys_evt_dispatch) for sys_evt_dispatch
    ipv6_medium_ble.o(i.commissioning_evt_handler) refers to ipv6_medium_ble.o(i.ipv6_medium_connectable_mode_exit) for ipv6_medium_connectable_mode_exit
    ipv6_medium_ble.o(i.commissioning_evt_handler) refers to commissioning.o(i.commissioning_gap_params_get) for commissioning_gap_params_get
    ipv6_medium_ble.o(i.commissioning_evt_handler) refers to commissioning.o(i.commissioning_adv_params_get) for commissioning_adv_params_get
    ipv6_medium_ble.o(i.commissioning_evt_handler) refers to ipv6_medium_ble.o(i.gap_params_apply) for gap_params_apply
    ipv6_medium_ble.o(i.commissioning_evt_handler) refers to ipv6_medium_ble.o(i.adv_params_apply) for adv_params_apply
    ipv6_medium_ble.o(i.commissioning_evt_handler) refers to ipv6_medium_ble.o(i.ipv6_medium_connectable_mode_enter) for ipv6_medium_connectable_mode_enter
    ipv6_medium_ble.o(i.commissioning_evt_handler) refers to ipv6_medium_ble.o(.data) for .data
    ipv6_medium_ble.o(i.gap_params_apply) refers to main.o(i.app_error_handler) for app_error_handler
    ipv6_medium_ble.o(i.gap_params_apply) refers to ipv6_medium_ble.o(.data) for .data
    ipv6_medium_ble.o(i.ipv6_medium_connectable_mode_enter) refers to commissioning.o(i.commissioning_gap_params_get) for commissioning_gap_params_get
    ipv6_medium_ble.o(i.ipv6_medium_connectable_mode_enter) refers to commissioning.o(i.commissioning_adv_params_get) for commissioning_adv_params_get
    ipv6_medium_ble.o(i.ipv6_medium_connectable_mode_enter) refers to ipv6_medium_ble.o(i.gap_params_apply) for gap_params_apply
    ipv6_medium_ble.o(i.ipv6_medium_connectable_mode_enter) refers to ipv6_medium_ble.o(i.adv_params_apply) for adv_params_apply
    ipv6_medium_ble.o(i.ipv6_medium_connectable_mode_enter) refers to ipv6_medium_ble.o(.data) for .data
    ipv6_medium_ble.o(i.ipv6_medium_connectable_mode_exit) refers to ipv6_medium_ble.o(.data) for .data
    ipv6_medium_ble.o(i.ipv6_medium_eui48_get) refers to ipv6_medium_ble.o(.data) for .data
    ipv6_medium_ble.o(i.ipv6_medium_eui48_set) refers to ipv6_medium_ble.o(.data) for .data
    ipv6_medium_ble.o(i.ipv6_medium_eui64_get) refers to main.o(i.app_error_handler) for app_error_handler
    ipv6_medium_ble.o(i.ipv6_medium_eui64_get) refers to ipv6_medium_ble.o(.data) for .data
    ipv6_medium_ble.o(i.ipv6_medium_eui64_set) refers to ipv6_medium_ble.o(.data) for .data
    ipv6_medium_ble.o(i.ipv6_medium_init) refers to ipv6_medium_ble.o(i.ble_stack_init) for ble_stack_init
    ipv6_medium_ble.o(i.ipv6_medium_init) refers to commissioning.o(i.commissioning_init) for commissioning_init
    ipv6_medium_ble.o(i.ipv6_medium_init) refers to commissioning.o(i.commissioning_node_mode_change) for commissioning_node_mode_change
    ipv6_medium_ble.o(i.ipv6_medium_init) refers to ipv6_medium_ble.o(.data) for .data
    ipv6_medium_ble.o(i.ipv6_medium_init) refers to ipv6_medium_ble.o(i.commissioning_evt_handler) for commissioning_evt_handler
    ipv6_medium_ble.o(i.on_ble_evt) refers to memseta.o(.text) for __aeabi_memclr4
    ipv6_medium_ble.o(i.on_ble_evt) refers to ble_ipsp.o(i.ble_ipsp_evt_handler) for ble_ipsp_evt_handler
    ipv6_medium_ble.o(i.on_ble_evt) refers to ipv6_medium_ble.o(.data) for .data
    ipv6_medium_ble.o(i.sys_evt_dispatch) refers to pstorage.o(i.pstorage_sys_event_handler) for pstorage_sys_event_handler
    ipv6_parse.o(i.ascii_to_hex) refers to _scanf_int.o(.text) for _scanf_int
    ipv6_parse.o(i.ascii_to_hex) refers to __0sscanf.o(.text) for __0sscanf
    ipv6_parse.o(i.ipv6_parse_addr) refers to strstr.o(.text) for strstr
    ipv6_parse.o(i.ipv6_parse_addr) refers to ipv6_parse.o(i.ascii_to_hex) for ascii_to_hex
    ipv6_parse.o(i.ipv6_parse_addr) refers to ipv6_parse.o(i.reverse_string) for reverse_string
    ipv6_parse.o(i.reverse_string) refers to strlen.o(.text) for strlen
    udp6.o(i.udp6_socket_allocate) refers to udp6.o(.data) for .data
    udp6.o(i.udp6_socket_allocate) refers to udp6.o(.bss) for .bss
    udp6.o(i.udp6_socket_app_data_set) refers to udp6.o(.data) for .data
    udp6.o(i.udp6_socket_app_data_set) refers to udp6.o(.bss) for .bss
    udp6.o(i.udp6_socket_bind) refers to udp6.o(.data) for .data
    udp6.o(i.udp6_socket_bind) refers to udp6.o(.bss) for .bss
    udp6.o(i.udp6_socket_connect) refers to udp6.o(.data) for .data
    udp6.o(i.udp6_socket_connect) refers to udp6.o(.bss) for .bss
    udp6.o(i.udp6_socket_free) refers to udp6.o(i.udp_socket_init) for udp_socket_init
    udp6.o(i.udp6_socket_free) refers to udp6.o(.data) for .data
    udp6.o(i.udp6_socket_free) refers to udp6.o(.bss) for .bss
    udp6.o(i.udp6_socket_recv) refers to udp6.o(.data) for .data
    udp6.o(i.udp6_socket_recv) refers to udp6.o(.bss) for .bss
    udp6.o(i.udp6_socket_send) refers to memcmp.o(.text) for memcmp
    udp6.o(i.udp6_socket_send) refers to ipv6.o(i.ipv6_address_find_best_match) for ipv6_address_find_best_match
    udp6.o(i.udp6_socket_send) refers to ipv6_utils.o(i.ipv6_checksum_calculate) for ipv6_checksum_calculate
    udp6.o(i.udp6_socket_send) refers to ipv6.o(i.ipv6_send) for ipv6_send
    udp6.o(i.udp6_socket_send) refers to udp6.o(.data) for .data
    udp6.o(i.udp6_socket_send) refers to udp6.o(.bss) for .bss
    udp6.o(i.udp6_socket_send) refers to ipv6.o(.bss) for ipv6_addr_any
    udp6.o(i.udp6_socket_sendto) refers to memcmp.o(.text) for memcmp
    udp6.o(i.udp6_socket_sendto) refers to ipv6.o(i.ipv6_address_find_best_match) for ipv6_address_find_best_match
    udp6.o(i.udp6_socket_sendto) refers to ipv6_utils.o(i.ipv6_checksum_calculate) for ipv6_checksum_calculate
    udp6.o(i.udp6_socket_sendto) refers to ipv6.o(i.ipv6_send) for ipv6_send
    udp6.o(i.udp6_socket_sendto) refers to udp6.o(.data) for .data
    udp6.o(i.udp6_socket_sendto) refers to udp6.o(.bss) for .bss
    udp6.o(i.udp6_socket_sendto) refers to ipv6.o(.bss) for ipv6_addr_any
    udp6.o(i.udp_init) refers to udp6.o(i.udp_socket_init) for udp_socket_init
    udp6.o(i.udp_init) refers to udp6.o(.bss) for .bss
    udp6.o(i.udp_init) refers to udp6.o(.data) for .data
    udp6.o(i.udp_input) refers to memcmp.o(.text) for memcmp
    udp6.o(i.udp_input) refers to ipv6_utils.o(i.ipv6_checksum_calculate) for ipv6_checksum_calculate
    udp6.o(i.udp_input) refers to udp6.o(.bss) for .bss
    udp6.o(i.udp_input) refers to ipv6.o(.bss) for ipv6_addr_any
    ble_ncfgs.o(i.add_ip_cfg_cp_characteristic) refers to memseta.o(.text) for __aeabi_memclr4
    ble_ncfgs.o(i.add_ip_cfg_cp_characteristic) refers to ble_ncfgs.o(.bss) for .bss
    ble_ncfgs.o(i.add_keys_store_characteristic) refers to memseta.o(.text) for __aeabi_memclr4
    ble_ncfgs.o(i.add_keys_store_characteristic) refers to ble_ncfgs.o(.bss) for .bss
    ble_ncfgs.o(i.add_ssid_characteristic) refers to memseta.o(.text) for __aeabi_memclr4
    ble_ncfgs.o(i.add_ssid_characteristic) refers to ble_ncfgs.o(.bss) for .bss
    ble_ncfgs.o(i.ble_ncfgs_ble_evt_handler) refers to ble_ncfgs.o(i.ctrlp_value_decode) for ctrlp_value_decode
    ble_ncfgs.o(i.ble_ncfgs_ble_evt_handler) refers to ble_ncfgs.o(.bss) for .bss
    ble_ncfgs.o(i.ble_ncfgs_ble_evt_handler) refers to ble_ncfgs.o(.data) for .data
    ble_ncfgs.o(i.ble_ncfgs_create_database) refers to ble_ncfgs.o(i.add_ssid_characteristic) for add_ssid_characteristic
    ble_ncfgs.o(i.ble_ncfgs_create_database) refers to ble_ncfgs.o(i.add_keys_store_characteristic) for add_keys_store_characteristic
    ble_ncfgs.o(i.ble_ncfgs_create_database) refers to ble_ncfgs.o(i.add_ip_cfg_cp_characteristic) for add_ip_cfg_cp_characteristic
    ble_ncfgs.o(i.ble_ncfgs_create_database) refers to ble_ncfgs.o(.constdata) for .constdata
    ble_ncfgs.o(i.ble_ncfgs_create_database) refers to ble_ncfgs.o(.bss) for .bss
    ble_ncfgs.o(i.ble_ncfgs_init) refers to memseta.o(.text) for __aeabi_memclr
    ble_ncfgs.o(i.ble_ncfgs_init) refers to ble_ncfgs.o(i.ble_ncfgs_create_database) for ble_ncfgs_create_database
    ble_ncfgs.o(i.ble_ncfgs_init) refers to ble_ncfgs.o(.bss) for .bss
    ble_ncfgs.o(i.ble_ncfgs_init) refers to ble_ncfgs.o(.data) for .data
    ble_ncfgs.o(i.ctrlp_value_decode) refers to memcpya.o(.text) for __aeabi_memcpy
    ble_ncfgs.o(i.ctrlp_value_decode) refers to ble_ncfgs.o(.bss) for .bss
    commissioning.o(i.action_timeout_handler) refers to commissioning.o(i.commissioning_node_mode_change) for commissioning_node_mode_change
    commissioning.o(i.action_timeout_handler) refers to commissioning.o(.data) for .data
    commissioning.o(i.commissioning_adv_params_get) refers to commissioning.o(.data) for .data
    commissioning.o(i.commissioning_adv_params_get) refers to commissioning.o(.bss) for .bss
    commissioning.o(i.commissioning_ble_evt_handler) refers to commissioning.o(i.commissioning_timer_stop_reset) for commissioning_timer_stop_reset
    commissioning.o(i.commissioning_ble_evt_handler) refers to commissioning.o(i.commissioning_timer_start) for commissioning_timer_start
    commissioning.o(i.commissioning_ble_evt_handler) refers to memseta.o(.text) for __aeabi_memset
    commissioning.o(i.commissioning_ble_evt_handler) refers to main.o(i.app_error_handler) for app_error_handler
    commissioning.o(i.commissioning_ble_evt_handler) refers to commissioning.o(.data) for .data
    commissioning.o(i.commissioning_ble_evt_handler) refers to commissioning.o(.bss) for .bss
    commissioning.o(i.commissioning_gap_params_get) refers to commissioning.o(.data) for .data
    commissioning.o(i.commissioning_gap_params_get) refers to commissioning.o(.bss) for .bss
    commissioning.o(i.commissioning_init) refers to memseta.o(.text) for __aeabi_memclr4
    commissioning.o(i.commissioning_init) refers to ble_ncfgs.o(i.ble_ncfgs_init) for ble_ncfgs_init
    commissioning.o(i.commissioning_init) refers to pstorage.o(i.pstorage_register) for pstorage_register
    commissioning.o(i.commissioning_init) refers to commissioning.o(i.read_node_settings) for read_node_settings
    commissioning.o(i.commissioning_init) refers to commissioning.o(i.print_node_settings) for print_node_settings
    commissioning.o(i.commissioning_init) refers to commissioning.o(i.commissioning_settings_clear) for commissioning_settings_clear
    commissioning.o(i.commissioning_init) refers to pstorage.o(i.pstorage_update) for pstorage_update
    commissioning.o(i.commissioning_init) refers to main.o(i.app_error_handler) for app_error_handler
    commissioning.o(i.commissioning_init) refers to commissioning.o(i.config_mode_gap_params_set) for config_mode_gap_params_set
    commissioning.o(i.commissioning_init) refers to commissioning.o(i.config_mode_adv_params_set) for config_mode_adv_params_set
    commissioning.o(i.commissioning_init) refers to commissioning.o(i.joining_mode_gap_params_set) for joining_mode_gap_params_set
    commissioning.o(i.commissioning_init) refers to commissioning.o(i.joining_mode_adv_params_set) for joining_mode_adv_params_set
    commissioning.o(i.commissioning_init) refers to commissioning.o(.data) for .data
    commissioning.o(i.commissioning_init) refers to commissioning.o(.bss) for .bss
    commissioning.o(i.commissioning_init) refers to commissioning.o(i.action_timeout_handler) for action_timeout_handler
    commissioning.o(i.commissioning_init) refers to commissioning.o(i.config_mode_timeout_handler) for config_mode_timeout_handler
    commissioning.o(i.commissioning_init) refers to commissioning.o(i.joining_mode_timeout_handler) for joining_mode_timeout_handler
    commissioning.o(i.commissioning_init) refers to commissioning.o(i.identity_mode_timeout_handler) for identity_mode_timeout_handler
    commissioning.o(i.commissioning_init) refers to commissioning.o(i.on_ble_ncfgs_evt) for on_ble_ncfgs_evt
    commissioning.o(i.commissioning_init) refers to commissioning.o(i.pstorage_cb_handler) for pstorage_cb_handler
    commissioning.o(i.commissioning_joining_mode_timer_ctrl) refers to commissioning.o(i.commissioning_timer_stop_reset) for commissioning_timer_stop_reset
    commissioning.o(i.commissioning_joining_mode_timer_ctrl) refers to commissioning.o(i.commissioning_timer_start) for commissioning_timer_start
    commissioning.o(i.commissioning_joining_mode_timer_ctrl) refers to commissioning.o(.bss) for .bss
    commissioning.o(i.commissioning_node_mode_change) refers to commissioning.o(i.commissioning_timer_stop_reset) for commissioning_timer_stop_reset
    commissioning.o(i.commissioning_node_mode_change) refers to commissioning.o(i.config_mode_gap_params_set) for config_mode_gap_params_set
    commissioning.o(i.commissioning_node_mode_change) refers to commissioning.o(i.config_mode_adv_params_set) for config_mode_adv_params_set
    commissioning.o(i.commissioning_node_mode_change) refers to commissioning.o(i.joining_mode_gap_params_set) for joining_mode_gap_params_set
    commissioning.o(i.commissioning_node_mode_change) refers to commissioning.o(i.joining_mode_adv_params_set) for joining_mode_adv_params_set
    commissioning.o(i.commissioning_node_mode_change) refers to commissioning.o(i.commissioning_timer_start) for commissioning_timer_start
    commissioning.o(i.commissioning_node_mode_change) refers to commissioning.o(.bss) for .bss
    commissioning.o(i.commissioning_node_mode_change) refers to commissioning.o(.data) for .data
    commissioning.o(i.commissioning_settings_clear) refers to memseta.o(.text) for __aeabi_memclr4
    commissioning.o(i.commissioning_settings_clear) refers to pstorage.o(i.pstorage_clear) for pstorage_clear
    commissioning.o(i.commissioning_settings_clear) refers to main.o(i.app_error_handler) for app_error_handler
    commissioning.o(i.commissioning_settings_clear) refers to commissioning.o(.bss) for .bss
    commissioning.o(i.commissioning_settings_clear) refers to commissioning.o(.data) for .data
    commissioning.o(i.commissioning_time_tick) refers to commissioning.o(i.commissioning_timer_stop_reset) for commissioning_timer_stop_reset
    commissioning.o(i.commissioning_time_tick) refers to commissioning.o(.bss) for .bss
    commissioning.o(i.commissioning_timer_start) refers to commissioning.o(.bss) for .bss
    commissioning.o(i.commissioning_timer_stop_reset) refers to commissioning.o(.bss) for .bss
    commissioning.o(i.config_mode_adv_params_set) refers to memseta.o(.text) for __aeabi_memclr4
    commissioning.o(i.config_mode_adv_params_set) refers to commissioning.o(.bss) for .bss
    commissioning.o(i.config_mode_adv_params_set) refers to commissioning.o(.data) for .data
    commissioning.o(i.config_mode_gap_params_set) refers to memseta.o(.text) for __aeabi_memclr4
    commissioning.o(i.config_mode_gap_params_set) refers to commissioning.o(.bss) for .bss
    commissioning.o(i.config_mode_timeout_handler) refers to commissioning.o(i.commissioning_node_mode_change) for commissioning_node_mode_change
    commissioning.o(i.config_mode_timeout_handler) refers to commissioning.o(.bss) for .bss
    commissioning.o(i.identity_mode_timeout_handler) refers to commissioning.o(.data) for .data
    commissioning.o(i.joining_mode_adv_params_set) refers to memseta.o(.text) for __aeabi_memclr4
    commissioning.o(i.joining_mode_adv_params_set) refers to commissioning.o(.bss) for .bss
    commissioning.o(i.joining_mode_adv_params_set) refers to commissioning.o(.data) for .data
    commissioning.o(i.joining_mode_gap_params_set) refers to memseta.o(.text) for __aeabi_memclr4
    commissioning.o(i.joining_mode_gap_params_set) refers to commissioning.o(.bss) for .bss
    commissioning.o(i.joining_mode_timeout_handler) refers to commissioning.o(i.commissioning_node_mode_change) for commissioning_node_mode_change
    commissioning.o(i.joining_mode_timeout_handler) refers to commissioning.o(.bss) for .bss
    commissioning.o(i.on_ble_ncfgs_evt) refers to commissioning.o(i.commissioning_timer_stop_reset) for commissioning_timer_stop_reset
    commissioning.o(i.on_ble_ncfgs_evt) refers to memcpya.o(.text) for __aeabi_memcpy
    commissioning.o(i.on_ble_ncfgs_evt) refers to commissioning.o(i.print_node_settings) for print_node_settings
    commissioning.o(i.on_ble_ncfgs_evt) refers to pstorage.o(i.pstorage_update) for pstorage_update
    commissioning.o(i.on_ble_ncfgs_evt) refers to main.o(i.app_error_handler) for app_error_handler
    commissioning.o(i.on_ble_ncfgs_evt) refers to commissioning.o(i.commissioning_timer_start) for commissioning_timer_start
    commissioning.o(i.on_ble_ncfgs_evt) refers to commissioning.o(.data) for .data
    commissioning.o(i.on_ble_ncfgs_evt) refers to commissioning.o(.bss) for .bss
    commissioning.o(i.print_node_settings) refers to commissioning.o(.bss) for .bss
    commissioning.o(i.read_node_settings) refers to memseta.o(.text) for __aeabi_memclr4
    commissioning.o(i.read_node_settings) refers to pstorage.o(i.pstorage_load) for pstorage_load
    commissioning.o(i.read_node_settings) refers to main.o(i.app_error_handler) for app_error_handler
    commissioning.o(i.read_node_settings) refers to commissioning.o(.bss) for .bss
    commissioning.o(i.read_node_settings) refers to commissioning.o(.data) for .data
    app_button.o(i.app_button_disable) refers to nrf_drv_gpiote.o(i.nrf_drv_gpiote_in_event_disable) for nrf_drv_gpiote_in_event_disable
    app_button.o(i.app_button_disable) refers to app_timer.o(i.app_timer_stop) for app_timer_stop
    app_button.o(i.app_button_disable) refers to app_button.o(.data) for .data
    app_button.o(i.app_button_disable) refers to app_button.o(.constdata) for .constdata
    app_button.o(i.app_button_enable) refers to nrf_drv_gpiote.o(i.nrf_drv_gpiote_in_event_enable) for nrf_drv_gpiote_in_event_enable
    app_button.o(i.app_button_enable) refers to app_button.o(.data) for .data
    app_button.o(i.app_button_init) refers to nrf_drv_gpiote.o(i.nrf_drv_gpiote_is_init) for nrf_drv_gpiote_is_init
    app_button.o(i.app_button_init) refers to nrf_drv_gpiote.o(i.nrf_drv_gpiote_init) for nrf_drv_gpiote_init
    app_button.o(i.app_button_init) refers to nrf_drv_gpiote.o(i.nrf_drv_gpiote_in_init) for nrf_drv_gpiote_in_init
    app_button.o(i.app_button_init) refers to app_timer.o(i.app_timer_create) for app_timer_create
    app_button.o(i.app_button_init) refers to app_button.o(.data) for .data
    app_button.o(i.app_button_init) refers to app_button.o(.constdata) for .constdata
    app_button.o(i.app_button_init) refers to app_button.o(i.gpiote_event_handler) for gpiote_event_handler
    app_button.o(i.app_button_init) refers to app_button.o(i.detection_delay_timeout_handler) for detection_delay_timeout_handler
    app_button.o(i.app_button_is_pushed) refers to nrf_drv_gpiote.o(i.nrf_drv_gpiote_in_is_set) for nrf_drv_gpiote_in_is_set
    app_button.o(i.app_button_is_pushed) refers to app_button.o(.data) for .data
    app_button.o(i.detection_delay_timeout_handler) refers to nrf_drv_gpiote.o(i.nrf_drv_gpiote_in_is_set) for nrf_drv_gpiote_in_is_set
    app_button.o(i.detection_delay_timeout_handler) refers to app_button.o(.data) for .data
    app_button.o(i.gpiote_event_handler) refers to app_timer.o(i.app_timer_stop) for app_timer_stop
    app_button.o(i.gpiote_event_handler) refers to nrf_drv_gpiote.o(i.nrf_drv_gpiote_in_is_set) for nrf_drv_gpiote_in_is_set
    app_button.o(i.gpiote_event_handler) refers to app_timer.o(i.app_timer_start) for app_timer_start
    app_button.o(i.gpiote_event_handler) refers to app_button.o(.constdata) for .constdata
    app_button.o(i.gpiote_event_handler) refers to app_button.o(.data) for .data
    app_button.o(.constdata) refers to app_button.o(.bss) for m_detection_delay_timer_id_data
    app_fifo.o(i.app_fifo_get) refers to app_fifo.o(i.fifo_get) for fifo_get
    app_fifo.o(i.app_fifo_put) refers to app_fifo.o(i.fifo_put) for fifo_put
    app_fifo.o(i.app_fifo_read) refers to app_fifo.o(i.fifo_get) for fifo_get
    app_fifo.o(i.app_fifo_write) refers to app_fifo.o(i.fifo_put) for fifo_put
    app_timer.o(i.RTC1_IRQHandler) refers to app_timer.o(i.timer_timeouts_check) for timer_timeouts_check
    app_timer.o(i.SWI0_EGU0_IRQHandler) refers to app_timer.o(i.timer_list_handler) for timer_list_handler
    app_timer.o(i.app_timer_create) refers to app_timer.o(.data) for .data
    app_timer.o(i.app_timer_init) refers to app_timer.o(i.rtc1_stop) for rtc1_stop
    app_timer.o(i.app_timer_init) refers to app_timer.o(i.NVIC_ClearPendingIRQ) for NVIC_ClearPendingIRQ
    app_timer.o(i.app_timer_init) refers to app_timer.o(i.NVIC_SetPriority) for NVIC_SetPriority
    app_timer.o(i.app_timer_init) refers to app_timer.o(i.NVIC_EnableIRQ) for NVIC_EnableIRQ
    app_timer.o(i.app_timer_init) refers to app_timer.o(.data) for .data
    app_timer.o(i.app_timer_start) refers to app_timer.o(i.user_id_get) for user_id_get
    app_timer.o(i.app_timer_start) refers to app_timer.o(i.user_op_alloc) for user_op_alloc
    app_timer.o(i.app_timer_start) refers to app_timer.o(i.NVIC_SetPendingIRQ) for NVIC_SetPendingIRQ
    app_timer.o(i.app_timer_start) refers to app_timer.o(.data) for .data
    app_timer.o(i.app_timer_stop) refers to app_timer.o(i.user_id_get) for user_id_get
    app_timer.o(i.app_timer_stop) refers to app_timer.o(i.user_op_alloc) for user_op_alloc
    app_timer.o(i.app_timer_stop) refers to app_timer.o(i.NVIC_SetPendingIRQ) for NVIC_SetPendingIRQ
    app_timer.o(i.app_timer_stop) refers to app_timer.o(.data) for .data
    app_timer.o(i.app_timer_stop_all) refers to app_timer.o(i.user_id_get) for user_id_get
    app_timer.o(i.app_timer_stop_all) refers to app_timer.o(i.user_op_alloc) for user_op_alloc
    app_timer.o(i.app_timer_stop_all) refers to app_timer.o(i.NVIC_SetPendingIRQ) for NVIC_SetPendingIRQ
    app_timer.o(i.app_timer_stop_all) refers to app_timer.o(.data) for .data
    app_timer.o(i.compare_reg_update) refers to app_timer.o(i.NVIC_ClearPendingIRQ) for NVIC_ClearPendingIRQ
    app_timer.o(i.compare_reg_update) refers to app_timer.o(i.NVIC_EnableIRQ) for NVIC_EnableIRQ
    app_timer.o(i.compare_reg_update) refers to app_timer.o(.emb_text) for __asm___11_app_timer_c_cd27f9c3__nrf_delay_us
    app_timer.o(i.compare_reg_update) refers to app_timer.o(i.NVIC_SetPendingIRQ) for NVIC_SetPendingIRQ
    app_timer.o(i.compare_reg_update) refers to app_timer.o(i.rtc1_stop) for rtc1_stop
    app_timer.o(i.compare_reg_update) refers to app_timer.o(.data) for .data
    app_timer.o(i.elapsed_ticks_acquire) refers to app_timer.o(.data) for .data
    app_timer.o(i.list_deletions_handler) refers to app_timer.o(.data) for .data
    app_timer.o(i.list_insertions_handler) refers to app_timer.o(i.timer_list_insert) for timer_list_insert
    app_timer.o(i.list_insertions_handler) refers to app_timer.o(.data) for .data
    app_timer.o(i.rtc1_stop) refers to app_timer.o(.emb_text) for __asm___11_app_timer_c_cd27f9c3__nrf_delay_us
    app_timer.o(i.rtc1_stop) refers to app_timer.o(.data) for .data
    app_timer.o(i.timer_list_handler) refers to app_timer.o(i.elapsed_ticks_acquire) for elapsed_ticks_acquire
    app_timer.o(i.timer_list_handler) refers to app_timer.o(i.list_deletions_handler) for list_deletions_handler
    app_timer.o(i.timer_list_handler) refers to app_timer.o(i.list_insertions_handler) for list_insertions_handler
    app_timer.o(i.timer_list_handler) refers to app_timer.o(i.compare_reg_update) for compare_reg_update
    app_timer.o(i.timer_list_handler) refers to app_timer.o(.data) for .data
    app_timer.o(i.timer_list_insert) refers to app_timer.o(.data) for .data
    app_timer.o(i.timer_timeouts_check) refers to main.o(i.app_error_handler) for app_error_handler
    app_timer.o(i.timer_timeouts_check) refers to app_timer.o(i.NVIC_SetPendingIRQ) for NVIC_SetPendingIRQ
    app_timer.o(i.timer_timeouts_check) refers to app_timer.o(.data) for .data
    mem_manager.o(i.block_init) refers to mem_manager.o(.data) for .data
    mem_manager.o(i.get_block_cat) refers to mem_manager.o(.constdata) for .constdata
    mem_manager.o(i.get_block_size) refers to mem_manager.o(i.get_block_cat) for get_block_cat
    mem_manager.o(i.get_block_size) refers to mem_manager.o(.constdata) for .constdata
    mem_manager.o(i.nrf_calloc) refers to mem_manager.o(i.nrf_mem_reserve) for nrf_mem_reserve
    mem_manager.o(i.nrf_calloc) refers to memseta.o(.text) for __aeabi_memclr
    mem_manager.o(i.nrf_free) refers to mem_manager.o(i.block_init) for block_init
    mem_manager.o(i.nrf_free) refers to mem_manager.o(i.get_block_size) for get_block_size
    mem_manager.o(i.nrf_free) refers to mem_manager.o(.data) for .data
    mem_manager.o(i.nrf_free) refers to mem_manager.o(.bss) for .bss
    mem_manager.o(i.nrf_malloc) refers to mem_manager.o(i.nrf_mem_reserve) for nrf_mem_reserve
    mem_manager.o(i.nrf_mem_init) refers to mem_manager.o(i.block_init) for block_init
    mem_manager.o(i.nrf_mem_init) refers to mem_manager.o(.data) for .data
    mem_manager.o(i.nrf_mem_reserve) refers to mem_manager.o(i.get_block_cat) for get_block_cat
    mem_manager.o(i.nrf_mem_reserve) refers to mem_manager.o(i.get_block_size) for get_block_size
    mem_manager.o(i.nrf_mem_reserve) refers to mem_manager.o(.data) for .data
    mem_manager.o(i.nrf_mem_reserve) refers to mem_manager.o(.constdata) for .constdata
    mem_manager.o(i.nrf_mem_reserve) refers to mem_manager.o(.bss) for .bss
    retarget.o(i.fgetc) refers to app_uart_fifo.o(i.app_uart_get) for app_uart_get
    retarget.o(i.fputc) refers to app_uart_fifo.o(i.app_uart_put) for app_uart_put
    softdevice_handler.o(i.SWI2_EGU2_IRQHandler) refers to main.o(i.app_error_handler) for app_error_handler
    softdevice_handler.o(i.SWI2_EGU2_IRQHandler) refers to softdevice_handler.o(i.intern_softdevice_events_execute) for intern_softdevice_events_execute
    softdevice_handler.o(i.SWI2_EGU2_IRQHandler) refers to softdevice_handler.o(.data) for .data
    softdevice_handler.o(i.intern_softdevice_events_execute) refers to main.o(i.app_error_handler) for app_error_handler
    softdevice_handler.o(i.intern_softdevice_events_execute) refers to softdevice_handler.o(.data) for .data
    softdevice_handler.o(i.softdevice_assertion_handler) refers (Weak) to main.o(i.assert_nrf_callback) for assert_nrf_callback
    softdevice_handler.o(i.softdevice_ble_evt_handler_set) refers to softdevice_handler.o(.data) for .data
    softdevice_handler.o(i.softdevice_handler_init) refers to softdevice_handler.o(.data) for .data
    softdevice_handler.o(i.softdevice_handler_init) refers to softdevice_handler.o(i.softdevice_assertion_handler) for softdevice_assertion_handler
    softdevice_handler.o(i.softdevice_handler_isEnabled) refers to softdevice_handler.o(.data) for .data
    softdevice_handler.o(i.softdevice_handler_sd_disable) refers to softdevice_handler.o(.data) for .data
    softdevice_handler.o(i.softdevice_sys_evt_handler_set) refers to softdevice_handler.o(.data) for .data
    arm_startup_nrf52.o(RESET) refers to arm_startup_nrf52.o(STACK) for __initial_sp
    arm_startup_nrf52.o(RESET) refers to arm_startup_nrf52.o(.text) for Reset_Handler
    arm_startup_nrf52.o(RESET) refers to nrf_drv_uart.o(i.UARTE0_UART0_IRQHandler) for UARTE0_UART0_IRQHandler
    arm_startup_nrf52.o(RESET) refers to nrf_drv_gpiote.o(i.GPIOTE_IRQHandler) for GPIOTE_IRQHandler
    arm_startup_nrf52.o(RESET) refers to app_timer.o(i.RTC1_IRQHandler) for RTC1_IRQHandler
    arm_startup_nrf52.o(RESET) refers to app_timer.o(i.SWI0_EGU0_IRQHandler) for SWI0_EGU0_IRQHandler
    arm_startup_nrf52.o(RESET) refers to softdevice_handler.o(i.SWI2_EGU2_IRQHandler) for SWI2_EGU2_IRQHandler
    arm_startup_nrf52.o(.text) refers to system_nrf52.o(i.SystemInit) for SystemInit
    arm_startup_nrf52.o(.text) refers to entry.o(.ARM.Collect$$$$00000000) for __main
    system_nrf52.o(i.SystemCoreClockUpdate) refers to system_nrf52.o(.data) for .data
    system_nrf52.o(i.SystemInit) refers to system_nrf52.o(.data) for .data
    ble_6lowpan.o(i.ble_6lowpan_init) refers to ble_6lowpan.o(i.instance_init) for instance_init
    ble_6lowpan.o(i.ble_6lowpan_init) refers to ble_ipsp.o(i.ble_ipsp_init) for ble_ipsp_init
    ble_6lowpan.o(i.ble_6lowpan_init) refers to ble_6lowpan.o(.data) for .data
    ble_6lowpan.o(i.ble_6lowpan_init) refers to ble_6lowpan.o(i.ipsp_evt_handler) for ipsp_evt_handler
    ble_6lowpan.o(i.ble_6lowpan_interface_disconnect) refers to ble_ipsp.o(i.ble_ipsp_disconnect) for ble_ipsp_disconnect
    ble_6lowpan.o(i.ble_6lowpan_interface_disconnect) refers to ble_6lowpan.o(.data) for .data
    ble_6lowpan.o(i.ble_6lowpan_interface_disconnect) refers to ble_6lowpan.o(.bss) for .bss
    ble_6lowpan.o(i.ble_6lowpan_interface_send) refers to ble_6lowpan.o(i.iphc_encode) for iphc_encode
    ble_6lowpan.o(i.ble_6lowpan_interface_send) refers to ble_6lowpan.o(i.tx_send) for tx_send
    ble_6lowpan.o(i.ble_6lowpan_interface_send) refers to ble_6lowpan.o(.data) for .data
    ble_6lowpan.o(i.ble_6lowpan_interface_send) refers to ble_6lowpan.o(.bss) for .bss
    ble_6lowpan.o(i.instance_init) refers to memseta.o(.text) for __aeabi_memclr4
    ble_6lowpan.o(i.instance_init) refers to ble_6lowpan.o(.bss) for .bss
    ble_6lowpan.o(i.interface_add) refers to memseta.o(.text) for __aeabi_memclr4
    ble_6lowpan.o(i.interface_add) refers to ble_6lowpan.o(.bss) for .bss
    ble_6lowpan.o(i.interface_add) refers to ble_6lowpan.o(.data) for .data
    ble_6lowpan.o(i.iphc_decode) refers to iot_context_manager.o(i.iot_context_manager_get_by_cid) for iot_context_manager_get_by_cid
    ble_6lowpan.o(i.iphc_decode) refers to memcpya.o(.text) for __aeabi_memcpy4
    ble_6lowpan.o(i.iphc_decode) refers to ble_6lowpan.o(i.iphc_nhc_decode) for iphc_nhc_decode
    ble_6lowpan.o(i.iphc_decode) refers to ble_6lowpan.o(.constdata) for .constdata
    ble_6lowpan.o(i.iphc_encode) refers to iot_context_manager.o(i.iot_context_manager_get_by_addr) for iot_context_manager_get_by_addr
    ble_6lowpan.o(i.iphc_encode) refers to ble_6lowpan.o(i.is_context_cover_iid) for is_context_cover_iid
    ble_6lowpan.o(i.iphc_encode) refers to memcpya.o(.text) for __aeabi_memcpy
    ble_6lowpan.o(i.iphc_encode) refers to ble_6lowpan.o(i.iphc_nhc_encode) for iphc_nhc_encode
    ble_6lowpan.o(i.ipsp_evt_handler) refers to ble_6lowpan.o(i.interface_add) for interface_add
    ble_6lowpan.o(i.ipsp_evt_handler) refers to ble_ipsp.o(i.ble_ipsp_disconnect) for ble_ipsp_disconnect
    ble_6lowpan.o(i.ipsp_evt_handler) refers to mem_manager.o(i.nrf_free) for nrf_free
    ble_6lowpan.o(i.ipsp_evt_handler) refers to ble_6lowpan.o(i.instance_init) for instance_init
    ble_6lowpan.o(i.ipsp_evt_handler) refers to mem_manager.o(i.nrf_mem_reserve) for nrf_mem_reserve
    ble_6lowpan.o(i.ipsp_evt_handler) refers to ble_6lowpan.o(i.iphc_decode) for iphc_decode
    ble_6lowpan.o(i.ipsp_evt_handler) refers to ble_6lowpan.o(i.tx_complete) for tx_complete
    ble_6lowpan.o(i.ipsp_evt_handler) refers to ble_6lowpan.o(i.tx_send) for tx_send
    ble_6lowpan.o(i.ipsp_evt_handler) refers to ble_6lowpan.o(.data) for .data
    ble_6lowpan.o(i.ipsp_evt_handler) refers to ble_6lowpan.o(.bss) for .bss
    ble_6lowpan.o(i.is_context_cover_iid) refers to memcmp.o(.text) for memcmp
    ble_6lowpan.o(i.tx_complete) refers to mem_manager.o(i.nrf_free) for nrf_free
    ble_6lowpan.o(i.tx_send) refers to ble_ipsp.o(i.ble_ipsp_send) for ble_ipsp_send
    ble_6lowpan.o(i.tx_send) refers to ble_6lowpan.o(i.tx_complete) for tx_complete
    ble_6lowpan.o(i.tx_send) refers to ble_6lowpan.o(.data) for .data
    ble_ipsp.o(i.ble_ipsp_connect) refers to ble_ipsp.o(i.channel_search) for channel_search
    ble_ipsp.o(i.ble_ipsp_connect) refers to memcpya.o(.text) for __aeabi_memcpy4
    ble_ipsp.o(i.ble_ipsp_connect) refers to ble_ipsp.o(i.channel_init) for channel_init
    ble_ipsp.o(i.ble_ipsp_connect) refers to ble_ipsp.o(.data) for .data
    ble_ipsp.o(i.ble_ipsp_connect) refers to ble_ipsp.o(.bss) for .bss
    ble_ipsp.o(i.ble_ipsp_connect) refers to ble_ipsp.o(.constdata) for .constdata
    ble_ipsp.o(i.ble_ipsp_disconnect) refers to ble_ipsp.o(i.channel_search) for channel_search
    ble_ipsp.o(i.ble_ipsp_disconnect) refers to ble_ipsp.o(.data) for .data
    ble_ipsp.o(i.ble_ipsp_disconnect) refers to ble_ipsp.o(.bss) for .bss
    ble_ipsp.o(i.ble_ipsp_evt_handler) refers to ble_ipsp.o(i.channel_search) for channel_search
    ble_ipsp.o(i.ble_ipsp_evt_handler) refers to ble_ipsp.o(i.channel_init) for channel_init
    ble_ipsp.o(i.ble_ipsp_evt_handler) refers to ble_ipsp.o(.data) for .data
    ble_ipsp.o(i.ble_ipsp_evt_handler) refers to ble_ipsp.o(.bss) for .bss
    ble_ipsp.o(i.ble_ipsp_init) refers to ble_ipsp.o(i.channel_init) for channel_init
    ble_ipsp.o(i.ble_ipsp_init) refers to ble_ipsp.o(.data) for .data
    ble_ipsp.o(i.ble_ipsp_send) refers to ble_ipsp.o(i.channel_search) for channel_search
    ble_ipsp.o(i.ble_ipsp_send) refers to ble_ipsp.o(.data) for .data
    ble_ipsp.o(i.channel_init) refers to ble_ipsp.o(.bss) for .bss
    ble_ipsp.o(i.channel_search) refers to ble_ipsp.o(.bss) for .bss
    entry.o(.ARM.Collect$$$$00000000) refers (Special) to entry10a.o(.ARM.Collect$$$$0000000D) for __rt_final_cpp
    entry.o(.ARM.Collect$$$$00000000) refers (Special) to entry11a.o(.ARM.Collect$$$$0000000F) for __rt_final_exit
    entry.o(.ARM.Collect$$$$00000000) refers (Special) to entry7b.o(.ARM.Collect$$$$00000008) for _main_clock
    entry.o(.ARM.Collect$$$$00000000) refers (Special) to entry8b.o(.ARM.Collect$$$$0000000A) for _main_cpp_init
    entry.o(.ARM.Collect$$$$00000000) refers (Special) to entry9a.o(.ARM.Collect$$$$0000000B) for _main_init
    entry.o(.ARM.Collect$$$$00000000) refers (Special) to entry5.o(.ARM.Collect$$$$00000004) for _main_scatterload
    entry.o(.ARM.Collect$$$$00000000) refers (Special) to entry2.o(.ARM.Collect$$$$00000001) for _main_stk
    printfb.o(i.__0fprintf$bare) refers to printfb.o(i._printf_core) for _printf_core
    printfb.o(i.__0fprintf$bare) refers to retarget.o(i.fputc) for fputc
    printfb.o(i.__0printf$bare) refers to printfb.o(i._printf_core) for _printf_core
    printfb.o(i.__0printf$bare) refers to retarget.o(i.fputc) for fputc
    printfb.o(i.__0printf$bare) refers to retarget.o(.data) for __stdout
    printfb.o(i.__0snprintf$bare) refers to printfb.o(i._printf_core) for _printf_core
    printfb.o(i.__0snprintf$bare) refers to printfb.o(i._snputc) for _snputc
    printfb.o(i.__0sprintf$bare) refers to printfb.o(i._printf_core) for _printf_core
    printfb.o(i.__0sprintf$bare) refers to printfb.o(i._sputc) for _sputc
    printfb.o(i.__0vfprintf$bare) refers to printfb.o(i._printf_core) for _printf_core
    printfb.o(i.__0vfprintf$bare) refers to retarget.o(i.fputc) for fputc
    printfb.o(i.__0vprintf$bare) refers to printfb.o(i._printf_core) for _printf_core
    printfb.o(i.__0vprintf$bare) refers to retarget.o(i.fputc) for fputc
    printfb.o(i.__0vprintf$bare) refers to retarget.o(.data) for __stdout
    printfb.o(i.__0vsnprintf$bare) refers to printfb.o(i._printf_core) for _printf_core
    printfb.o(i.__0vsnprintf$bare) refers to printfb.o(i._snputc) for _snputc
    printfb.o(i.__0vsprintf$bare) refers to printfb.o(i._printf_core) for _printf_core
    printfb.o(i.__0vsprintf$bare) refers to printfb.o(i._sputc) for _sputc
    printf0.o(i.__0fprintf$0) refers to printf0.o(i._printf_core) for _printf_core
    printf0.o(i.__0fprintf$0) refers to retarget.o(i.fputc) for fputc
    printf0.o(i.__0printf$0) refers to printf0.o(i._printf_core) for _printf_core
    printf0.o(i.__0printf$0) refers to retarget.o(i.fputc) for fputc
    printf0.o(i.__0printf$0) refers to retarget.o(.data) for __stdout
    printf0.o(i.__0snprintf$0) refers to printf0.o(i._printf_core) for _printf_core
    printf0.o(i.__0snprintf$0) refers to printf0.o(i._snputc) for _snputc
    printf0.o(i.__0sprintf$0) refers to printf0.o(i._printf_core) for _printf_core
    printf0.o(i.__0sprintf$0) refers to printf0.o(i._sputc) for _sputc
    printf0.o(i.__0vfprintf$0) refers to printf0.o(i._printf_core) for _printf_core
    printf0.o(i.__0vfprintf$0) refers to retarget.o(i.fputc) for fputc
    printf0.o(i.__0vprintf$0) refers to printf0.o(i._printf_core) for _printf_core
    printf0.o(i.__0vprintf$0) refers to retarget.o(i.fputc) for fputc
    printf0.o(i.__0vprintf$0) refers to retarget.o(.data) for __stdout
    printf0.o(i.__0vsnprintf$0) refers to printf0.o(i._printf_core) for _printf_core
    printf0.o(i.__0vsnprintf$0) refers to printf0.o(i._snputc) for _snputc
    printf0.o(i.__0vsprintf$0) refers to printf0.o(i._printf_core) for _printf_core
    printf0.o(i.__0vsprintf$0) refers to printf0.o(i._sputc) for _sputc
    printf1.o(i.__0fprintf$1) refers to printf1.o(i._printf_core) for _printf_core
    printf1.o(i.__0fprintf$1) refers to retarget.o(i.fputc) for fputc
    printf1.o(i.__0printf$1) refers to printf1.o(i._printf_core) for _printf_core
    printf1.o(i.__0printf$1) refers to retarget.o(i.fputc) for fputc
    printf1.o(i.__0printf$1) refers to retarget.o(.data) for __stdout
    printf1.o(i.__0snprintf$1) refers to printf1.o(i._printf_core) for _printf_core
    printf1.o(i.__0snprintf$1) refers to printf1.o(i._snputc) for _snputc
    printf1.o(i.__0sprintf$1) refers to printf1.o(i._printf_core) for _printf_core
    printf1.o(i.__0sprintf$1) refers to printf1.o(i._sputc) for _sputc
    printf1.o(i.__0vfprintf$1) refers to printf1.o(i._printf_core) for _printf_core
    printf1.o(i.__0vfprintf$1) refers to retarget.o(i.fputc) for fputc
    printf1.o(i.__0vprintf$1) refers to printf1.o(i._printf_core) for _printf_core
    printf1.o(i.__0vprintf$1) refers to retarget.o(i.fputc) for fputc
    printf1.o(i.__0vprintf$1) refers to retarget.o(.data) for __stdout
    printf1.o(i.__0vsnprintf$1) refers to printf1.o(i._printf_core) for _printf_core
    printf1.o(i.__0vsnprintf$1) refers to printf1.o(i._snputc) for _snputc
    printf1.o(i.__0vsprintf$1) refers to printf1.o(i._printf_core) for _printf_core
    printf1.o(i.__0vsprintf$1) refers to printf1.o(i._sputc) for _sputc
    printf1.o(i._printf_core) refers to uidiv.o(.text) for __aeabi_uidivmod
    printf2.o(i.__0fprintf$2) refers to printf2.o(i._printf_core) for _printf_core
    printf2.o(i.__0fprintf$2) refers to retarget.o(i.fputc) for fputc
    printf2.o(i.__0printf$2) refers to printf2.o(i._printf_core) for _printf_core
    printf2.o(i.__0printf$2) refers to retarget.o(i.fputc) for fputc
    printf2.o(i.__0printf$2) refers to retarget.o(.data) for __stdout
    printf2.o(i.__0snprintf$2) refers to printf2.o(i._printf_core) for _printf_core
    printf2.o(i.__0snprintf$2) refers to printf2.o(i._snputc) for _snputc
    printf2.o(i.__0sprintf$2) refers to printf2.o(i._printf_core) for _printf_core
    printf2.o(i.__0sprintf$2) refers to printf2.o(i._sputc) for _sputc
    printf2.o(i.__0vfprintf$2) refers to printf2.o(i._printf_core) for _printf_core
    printf2.o(i.__0vfprintf$2) refers to retarget.o(i.fputc) for fputc
    printf2.o(i.__0vprintf$2) refers to printf2.o(i._printf_core) for _printf_core
    printf2.o(i.__0vprintf$2) refers to retarget.o(i.fputc) for fputc
    printf2.o(i.__0vprintf$2) refers to retarget.o(.data) for __stdout
    printf2.o(i.__0vsnprintf$2) refers to printf2.o(i._printf_core) for _printf_core
    printf2.o(i.__0vsnprintf$2) refers to printf2.o(i._snputc) for _snputc
    printf2.o(i.__0vsprintf$2) refers to printf2.o(i._printf_core) for _printf_core
    printf2.o(i.__0vsprintf$2) refers to printf2.o(i._sputc) for _sputc
    printf3.o(i.__0fprintf$3) refers to printf3.o(i._printf_core) for _printf_core
    printf3.o(i.__0fprintf$3) refers to retarget.o(i.fputc) for fputc
    printf3.o(i.__0printf$3) refers to printf3.o(i._printf_core) for _printf_core
    printf3.o(i.__0printf$3) refers to retarget.o(i.fputc) for fputc
    printf3.o(i.__0printf$3) refers to retarget.o(.data) for __stdout
    printf3.o(i.__0snprintf$3) refers to printf3.o(i._printf_core) for _printf_core
    printf3.o(i.__0snprintf$3) refers to printf3.o(i._snputc) for _snputc
    printf3.o(i.__0sprintf$3) refers to printf3.o(i._printf_core) for _printf_core
    printf3.o(i.__0sprintf$3) refers to printf3.o(i._sputc) for _sputc
    printf3.o(i.__0vfprintf$3) refers to printf3.o(i._printf_core) for _printf_core
    printf3.o(i.__0vfprintf$3) refers to retarget.o(i.fputc) for fputc
    printf3.o(i.__0vprintf$3) refers to printf3.o(i._printf_core) for _printf_core
    printf3.o(i.__0vprintf$3) refers to retarget.o(i.fputc) for fputc
    printf3.o(i.__0vprintf$3) refers to retarget.o(.data) for __stdout
    printf3.o(i.__0vsnprintf$3) refers to printf3.o(i._printf_core) for _printf_core
    printf3.o(i.__0vsnprintf$3) refers to printf3.o(i._snputc) for _snputc
    printf3.o(i.__0vsprintf$3) refers to printf3.o(i._printf_core) for _printf_core
    printf3.o(i.__0vsprintf$3) refers to printf3.o(i._sputc) for _sputc
    printf3.o(i._printf_core) refers to uidiv.o(.text) for __aeabi_uidivmod
    printf4.o(i.__0fprintf$4) refers to printf4.o(i._printf_core) for _printf_core
    printf4.o(i.__0fprintf$4) refers to retarget.o(i.fputc) for fputc
    printf4.o(i.__0printf$4) refers to printf4.o(i._printf_core) for _printf_core
    printf4.o(i.__0printf$4) refers to retarget.o(i.fputc) for fputc
    printf4.o(i.__0printf$4) refers to retarget.o(.data) for __stdout
    printf4.o(i.__0snprintf$4) refers to printf4.o(i._printf_core) for _printf_core
    printf4.o(i.__0snprintf$4) refers to printf4.o(i._snputc) for _snputc
    printf4.o(i.__0sprintf$4) refers to printf4.o(i._printf_core) for _printf_core
    printf4.o(i.__0sprintf$4) refers to printf4.o(i._sputc) for _sputc
    printf4.o(i.__0vfprintf$4) refers to printf4.o(i._printf_core) for _printf_core
    printf4.o(i.__0vfprintf$4) refers to retarget.o(i.fputc) for fputc
    printf4.o(i.__0vprintf$4) refers to printf4.o(i._printf_core) for _printf_core
    printf4.o(i.__0vprintf$4) refers to retarget.o(i.fputc) for fputc
    printf4.o(i.__0vprintf$4) refers to retarget.o(.data) for __stdout
    printf4.o(i.__0vsnprintf$4) refers to printf4.o(i._printf_core) for _printf_core
    printf4.o(i.__0vsnprintf$4) refers to printf4.o(i._snputc) for _snputc
    printf4.o(i.__0vsprintf$4) refers to printf4.o(i._printf_core) for _printf_core
    printf4.o(i.__0vsprintf$4) refers to printf4.o(i._sputc) for _sputc
    printf4.o(i._printf_core) refers to uldiv.o(.text) for __aeabi_uldivmod
    printf5.o(i.__0fprintf$5) refers to printf5.o(i._printf_core) for _printf_core
    printf5.o(i.__0fprintf$5) refers to retarget.o(i.fputc) for fputc
    printf5.o(i.__0printf$5) refers to printf5.o(i._printf_core) for _printf_core
    printf5.o(i.__0printf$5) refers to retarget.o(i.fputc) for fputc
    printf5.o(i.__0printf$5) refers to retarget.o(.data) for __stdout
    printf5.o(i.__0snprintf$5) refers to printf5.o(i._printf_core) for _printf_core
    printf5.o(i.__0snprintf$5) refers to printf5.o(i._snputc) for _snputc
    printf5.o(i.__0sprintf$5) refers to printf5.o(i._printf_core) for _printf_core
    printf5.o(i.__0sprintf$5) refers to printf5.o(i._sputc) for _sputc
    printf5.o(i.__0vfprintf$5) refers to printf5.o(i._printf_core) for _printf_core
    printf5.o(i.__0vfprintf$5) refers to retarget.o(i.fputc) for fputc
    printf5.o(i.__0vprintf$5) refers to printf5.o(i._printf_core) for _printf_core
    printf5.o(i.__0vprintf$5) refers to retarget.o(i.fputc) for fputc
    printf5.o(i.__0vprintf$5) refers to retarget.o(.data) for __stdout
    printf5.o(i.__0vsnprintf$5) refers to printf5.o(i._printf_core) for _printf_core
    printf5.o(i.__0vsnprintf$5) refers to printf5.o(i._snputc) for _snputc
    printf5.o(i.__0vsprintf$5) refers to printf5.o(i._printf_core) for _printf_core
    printf5.o(i.__0vsprintf$5) refers to printf5.o(i._sputc) for _sputc
    printf5.o(i._printf_core) refers to uldiv.o(.text) for __aeabi_uldivmod
    printf6.o(i.__0fprintf$6) refers to printf6.o(i._printf_core) for _printf_core
    printf6.o(i.__0fprintf$6) refers to retarget.o(i.fputc) for fputc
    printf6.o(i.__0printf$6) refers to printf6.o(i._printf_core) for _printf_core
    printf6.o(i.__0printf$6) refers to retarget.o(i.fputc) for fputc
    printf6.o(i.__0printf$6) refers to retarget.o(.data) for __stdout
    printf6.o(i.__0snprintf$6) refers to printf6.o(i._printf_core) for _printf_core
    printf6.o(i.__0snprintf$6) refers to printf6.o(i._snputc) for _snputc
    printf6.o(i.__0sprintf$6) refers to printf6.o(i._printf_core) for _printf_core
    printf6.o(i.__0sprintf$6) refers to printf6.o(i._sputc) for _sputc
    printf6.o(i.__0vfprintf$6) refers to printf6.o(i._printf_core) for _printf_core
    printf6.o(i.__0vfprintf$6) refers to retarget.o(i.fputc) for fputc
    printf6.o(i.__0vprintf$6) refers to printf6.o(i._printf_core) for _printf_core
    printf6.o(i.__0vprintf$6) refers to retarget.o(i.fputc) for fputc
    printf6.o(i.__0vprintf$6) refers to retarget.o(.data) for __stdout
    printf6.o(i.__0vsnprintf$6) refers to printf6.o(i._printf_core) for _printf_core
    printf6.o(i.__0vsnprintf$6) refers to printf6.o(i._snputc) for _snputc
    printf6.o(i.__0vsprintf$6) refers to printf6.o(i._printf_core) for _printf_core
    printf6.o(i.__0vsprintf$6) refers to printf6.o(i._sputc) for _sputc
    printf6.o(i._printf_core) refers to printf6.o(i._printf_pre_padding) for _printf_pre_padding
    printf6.o(i._printf_core) refers to uidiv.o(.text) for __aeabi_uidivmod
    printf6.o(i._printf_core) refers to printf6.o(i._printf_post_padding) for _printf_post_padding
    printf7.o(i.__0fprintf$7) refers to printf7.o(i._printf_core) for _printf_core
    printf7.o(i.__0fprintf$7) refers to retarget.o(i.fputc) for fputc
    printf7.o(i.__0printf$7) refers to printf7.o(i._printf_core) for _printf_core
    printf7.o(i.__0printf$7) refers to retarget.o(i.fputc) for fputc
    printf7.o(i.__0printf$7) refers to retarget.o(.data) for __stdout
    printf7.o(i.__0snprintf$7) refers to printf7.o(i._printf_core) for _printf_core
    printf7.o(i.__0snprintf$7) refers to printf7.o(i._snputc) for _snputc
    printf7.o(i.__0sprintf$7) refers to printf7.o(i._printf_core) for _printf_core
    printf7.o(i.__0sprintf$7) refers to printf7.o(i._sputc) for _sputc
    printf7.o(i.__0vfprintf$7) refers to printf7.o(i._printf_core) for _printf_core
    printf7.o(i.__0vfprintf$7) refers to retarget.o(i.fputc) for fputc
    printf7.o(i.__0vprintf$7) refers to printf7.o(i._printf_core) for _printf_core
    printf7.o(i.__0vprintf$7) refers to retarget.o(i.fputc) for fputc
    printf7.o(i.__0vprintf$7) refers to retarget.o(.data) for __stdout
    printf7.o(i.__0vsnprintf$7) refers to printf7.o(i._printf_core) for _printf_core
    printf7.o(i.__0vsnprintf$7) refers to printf7.o(i._snputc) for _snputc
    printf7.o(i.__0vsprintf$7) refers to printf7.o(i._printf_core) for _printf_core
    printf7.o(i.__0vsprintf$7) refers to printf7.o(i._sputc) for _sputc
    printf7.o(i._printf_core) refers to printf7.o(i._printf_pre_padding) for _printf_pre_padding
    printf7.o(i._printf_core) refers to uldiv.o(.text) for __aeabi_uldivmod
    printf7.o(i._printf_core) refers to printf7.o(i._printf_post_padding) for _printf_post_padding
    printf8.o(i.__0fprintf$8) refers to printf8.o(i._printf_core) for _printf_core
    printf8.o(i.__0fprintf$8) refers to retarget.o(i.fputc) for fputc
    printf8.o(i.__0printf$8) refers to printf8.o(i._printf_core) for _printf_core
    printf8.o(i.__0printf$8) refers to retarget.o(i.fputc) for fputc
    printf8.o(i.__0printf$8) refers to retarget.o(.data) for __stdout
    printf8.o(i.__0snprintf$8) refers to printf8.o(i._printf_core) for _printf_core
    printf8.o(i.__0snprintf$8) refers to printf8.o(i._snputc) for _snputc
    printf8.o(i.__0sprintf$8) refers to printf8.o(i._printf_core) for _printf_core
    printf8.o(i.__0sprintf$8) refers to printf8.o(i._sputc) for _sputc
    printf8.o(i.__0vfprintf$8) refers to printf8.o(i._printf_core) for _printf_core
    printf8.o(i.__0vfprintf$8) refers to retarget.o(i.fputc) for fputc
    printf8.o(i.__0vprintf$8) refers to printf8.o(i._printf_core) for _printf_core
    printf8.o(i.__0vprintf$8) refers to retarget.o(i.fputc) for fputc
    printf8.o(i.__0vprintf$8) refers to retarget.o(.data) for __stdout
    printf8.o(i.__0vsnprintf$8) refers to printf8.o(i._printf_core) for _printf_core
    printf8.o(i.__0vsnprintf$8) refers to printf8.o(i._snputc) for _snputc
    printf8.o(i.__0vsprintf$8) refers to printf8.o(i._printf_core) for _printf_core
    printf8.o(i.__0vsprintf$8) refers to printf8.o(i._sputc) for _sputc
    printf8.o(i._printf_core) refers to printf8.o(i._printf_pre_padding) for _printf_pre_padding
    printf8.o(i._printf_core) refers to uldiv.o(.text) for __aeabi_uldivmod
    printf8.o(i._printf_core) refers to printf8.o(i._printf_post_padding) for _printf_post_padding
    printfa.o(i.__0fprintf) refers (Special) to iusefp.o(.text) for __I$use$fp
    printfa.o(i.__0fprintf) refers to printfa.o(i._printf_core) for _printf_core
    printfa.o(i.__0fprintf) refers to retarget.o(i.fputc) for fputc
    printfa.o(i.__0printf) refers (Special) to iusefp.o(.text) for __I$use$fp
    printfa.o(i.__0printf) refers to printfa.o(i._printf_core) for _printf_core
    printfa.o(i.__0printf) refers to retarget.o(i.fputc) for fputc
    printfa.o(i.__0printf) refers to retarget.o(.data) for __stdout
    printfa.o(i.__0snprintf) refers (Special) to iusefp.o(.text) for __I$use$fp
    printfa.o(i.__0snprintf) refers to printfa.o(i._printf_core) for _printf_core
    printfa.o(i.__0snprintf) refers to printfa.o(i._snputc) for _snputc
    printfa.o(i.__0sprintf) refers (Special) to iusefp.o(.text) for __I$use$fp
    printfa.o(i.__0sprintf) refers to printfa.o(i._printf_core) for _printf_core
    printfa.o(i.__0sprintf) refers to printfa.o(i._sputc) for _sputc
    printfa.o(i.__0vfprintf) refers (Special) to iusefp.o(.text) for __I$use$fp
    printfa.o(i.__0vfprintf) refers to printfa.o(i._printf_core) for _printf_core
    printfa.o(i.__0vfprintf) refers to retarget.o(i.fputc) for fputc
    printfa.o(i.__0vprintf) refers (Special) to iusefp.o(.text) for __I$use$fp
    printfa.o(i.__0vprintf) refers to printfa.o(i._printf_core) for _printf_core
    printfa.o(i.__0vprintf) refers to retarget.o(i.fputc) for fputc
    printfa.o(i.__0vprintf) refers to retarget.o(.data) for __stdout
    printfa.o(i.__0vsnprintf) refers (Special) to iusefp.o(.text) for __I$use$fp
    printfa.o(i.__0vsnprintf) refers to printfa.o(i._printf_core) for _printf_core
    printfa.o(i.__0vsnprintf) refers to printfa.o(i._snputc) for _snputc
    printfa.o(i.__0vsprintf) refers (Special) to iusefp.o(.text) for __I$use$fp
    printfa.o(i.__0vsprintf) refers to printfa.o(i._printf_core) for _printf_core
    printfa.o(i.__0vsprintf) refers to printfa.o(i._sputc) for _sputc
    printfa.o(i._fp_digits) refers (Special) to iusefp.o(.text) for __I$use$fp
    printfa.o(i._fp_digits) refers to dmul.o(.text) for __aeabi_dmul
    printfa.o(i._fp_digits) refers to ddiv.o(.text) for __aeabi_ddiv
    printfa.o(i._fp_digits) refers to cdrcmple.o(.text) for __aeabi_cdrcmple
    printfa.o(i._fp_digits) refers to dadd.o(.text) for __aeabi_dadd
    printfa.o(i._fp_digits) refers to dfixul.o(.text) for __aeabi_d2ulz
    printfa.o(i._fp_digits) refers to uldiv.o(.text) for __aeabi_uldivmod
    printfa.o(i._printf_core) refers (Special) to iusefp.o(.text) for __I$use$fp
    printfa.o(i._printf_core) refers to printfa.o(i._printf_pre_padding) for _printf_pre_padding
    printfa.o(i._printf_core) refers to uldiv.o(.text) for __aeabi_uldivmod
    printfa.o(i._printf_core) refers to printfa.o(i._printf_post_padding) for _printf_post_padding
    printfa.o(i._printf_core) refers to printfa.o(i._fp_digits) for _fp_digits
    printfa.o(i._printf_core) refers to uidiv.o(.text) for __aeabi_uidivmod
    printfa.o(i._printf_post_padding) refers (Special) to iusefp.o(.text) for __I$use$fp
    printfa.o(i._printf_pre_padding) refers (Special) to iusefp.o(.text) for __I$use$fp
    printfa.o(i._snputc) refers (Special) to iusefp.o(.text) for __I$use$fp
    printfa.o(i._sputc) refers (Special) to iusefp.o(.text) for __I$use$fp
    __0sscanf.o(.text) refers to scanf_char.o(.text) for __vfscanf_char
    __0sscanf.o(.text) refers to _sgetc.o(.text) for _sgetc
    _scanf_int.o(.text) refers to _chval.o(.text) for _chval
    entry2.o(.ARM.Collect$$$$00000001) refers to entry2.o(.ARM.Collect$$$$00002712) for __lit__00000000
    entry2.o(.ARM.Collect$$$$00002712) refers to arm_startup_nrf52.o(STACK) for __initial_sp
    entry2.o(__vectab_stack_and_reset_area) refers to arm_startup_nrf52.o(STACK) for __initial_sp
    entry2.o(__vectab_stack_and_reset_area) refers to entry.o(.ARM.Collect$$$$00000000) for __main
    entry5.o(.ARM.Collect$$$$00000004) refers to init.o(.text) for __scatterload
    entry9a.o(.ARM.Collect$$$$0000000B) refers to main.o(i.main) for main
    entry9b.o(.ARM.Collect$$$$0000000C) refers to main.o(i.main) for main
    uldiv.o(.text) refers to llushr.o(.text) for __aeabi_llsr
    uldiv.o(.text) refers to llshl.o(.text) for __aeabi_llsl
    scanf_char.o(.text) refers to _scanf.o(.text) for __vfscanf
    scanf_char.o(.text) refers to isspace_c.o(.text) for isspace
    dadd.o(.text) refers to llshl.o(.text) for __aeabi_llsl
    dadd.o(.text) refers to llsshr.o(.text) for __aeabi_lasr
    dadd.o(.text) refers to depilogue.o(.text) for _double_epilogue
    dmul.o(.text) refers to depilogue.o(.text) for _double_epilogue
    ddiv.o(.text) refers to depilogue.o(.text) for _double_round
    dfixul.o(.text) refers to llushr.o(.text) for __aeabi_llsr
    dfixul.o(.text) refers to llshl.o(.text) for __aeabi_llsl
    init.o(.text) refers to entry5.o(.ARM.Collect$$$$00000004) for __main_after_scatterload
    isspace_c.o(.text) refers to ctype_c.o(.text) for __ctype_lookup
    _scanf.o(.text) refers (Weak) to _scanf_int.o(.text) for _scanf_int
    depilogue.o(.text) refers to llshl.o(.text) for __aeabi_llsl
    depilogue.o(.text) refers to llushr.o(.text) for __aeabi_llsr
    ctype_c.o(.text) refers to ctype_c.o(.constdata) for .constdata


==============================================================================

Removing Unused input sections from the image.

    Removing main.o(.rev16_text), (4 bytes).
    Removing main.o(.revsh_text), (4 bytes).
    Removing main.o(.rrx_text), (6 bytes).
    Removing main.o(.emb_text), (118 bytes).
    Removing main.o(i.assert_nrf_callback), (16 bytes).
    Removing bsp.o(.rev16_text), (4 bytes).
    Removing bsp.o(.revsh_text), (4 bytes).
    Removing bsp.o(.rrx_text), (6 bytes).
    Removing bsp.o(i.alert_timer_handler), (32 bytes).
    Removing bsp.o(i.bsp_button_event_handler), (168 bytes).
    Removing bsp.o(i.bsp_button_is_pressed), (44 bytes).
    Removing bsp.o(i.bsp_buttons_disable), (4 bytes).
    Removing bsp.o(i.bsp_buttons_enable), (4 bytes).
    Removing bsp.o(i.bsp_buttons_state_get), (60 bytes).
    Removing bsp.o(i.bsp_event_to_button_action_assign), (68 bytes).
    Removing bsp.o(i.bsp_indication_set), (24 bytes).
    Removing bsp.o(i.bsp_indication_text_set), (4 bytes).
    Removing bsp.o(i.bsp_init), (164 bytes).
    Removing bsp.o(i.bsp_led_indication), (548 bytes).
    Removing bsp.o(i.bsp_wakeup_buttons_set), (60 bytes).
    Removing bsp.o(i.button_timer_handler), (8 bytes).
    Removing bsp.o(i.leds_timer_handler), (20 bytes).
    Removing bsp.o(.bss), (32 bytes).
    Removing bsp.o(.bss), (32 bytes).
    Removing bsp.o(.bss), (12 bytes).
    Removing bsp.o(.bss), (32 bytes).
    Removing bsp.o(.constdata), (60 bytes).
    Removing bsp.o(.data), (24 bytes).
    Removing ble_conn_params.o(i.ble_conn_params_change_conn_params), (76 bytes).
    Removing ble_conn_params.o(i.ble_conn_params_init), (88 bytes).
    Removing ble_conn_params.o(i.ble_conn_params_on_ble_evt), (140 bytes).
    Removing ble_conn_params.o(i.ble_conn_params_stop), (12 bytes).
    Removing ble_conn_params.o(i.conn_params_negotiation), (92 bytes).
    Removing ble_conn_params.o(i.is_conn_params_ok), (28 bytes).
    Removing ble_conn_params.o(i.update_timeout_handler), (96 bytes).
    Removing ble_conn_params.o(.bss), (32 bytes).
    Removing ble_conn_params.o(.bss), (28 bytes).
    Removing ble_conn_params.o(.constdata), (4 bytes).
    Removing ble_conn_params.o(.data), (20 bytes).
    Removing ble_srv_common.o(i.ble_srv_ascii_to_utf8), (18 bytes).
    Removing ble_srv_common.o(i.ble_srv_report_ref_encode), (12 bytes).
    Removing ble_srv_common.o(i.characteristic_add), (394 bytes).
    Removing ble_srv_common.o(i.descriptor_add), (170 bytes).
    Removing ble_srv_common.o(i.set_security_req), (48 bytes).
    Removing app_uart_fifo.o(.rev16_text), (4 bytes).
    Removing app_uart_fifo.o(.revsh_text), (4 bytes).
    Removing app_uart_fifo.o(.rrx_text), (6 bytes).
    Removing app_uart_fifo.o(i.app_uart_close), (10 bytes).
    Removing app_uart_fifo.o(i.app_uart_flush), (32 bytes).
    Removing app_uart_fifo.o(i.app_uart_get), (52 bytes).
    Removing app_uart_fifo.o(i.app_uart_init), (156 bytes).
    Removing app_uart_fifo.o(i.app_uart_put), (44 bytes).
    Removing app_uart_fifo.o(i.uart_event_handler), (156 bytes).
    Removing app_uart_fifo.o(.bss), (32 bytes).
    Removing app_uart_fifo.o(.constdata), (32 bytes).
    Removing app_uart_fifo.o(.data), (8 bytes).
    Removing nrf_delay.o(.rev16_text), (4 bytes).
    Removing nrf_delay.o(.revsh_text), (4 bytes).
    Removing nrf_delay.o(.rrx_text), (6 bytes).
    Removing nrf_drv_common.o(.rev16_text), (4 bytes).
    Removing nrf_drv_common.o(.revsh_text), (4 bytes).
    Removing nrf_drv_common.o(.rrx_text), (6 bytes).
    Removing nrf_drv_gpiote.o(.rev16_text), (4 bytes).
    Removing nrf_drv_gpiote.o(.revsh_text), (4 bytes).
    Removing nrf_drv_gpiote.o(.rrx_text), (6 bytes).
    Removing nrf_drv_gpiote.o(i.nrf_drv_gpiote_in_event_addr_get), (28 bytes).
    Removing nrf_drv_gpiote.o(i.nrf_drv_gpiote_in_event_disable), (72 bytes).
    Removing nrf_drv_gpiote.o(i.nrf_drv_gpiote_in_uninit), (72 bytes).
    Removing nrf_drv_gpiote.o(i.nrf_drv_gpiote_out_clear), (16 bytes).
    Removing nrf_drv_gpiote.o(i.nrf_drv_gpiote_out_init), (184 bytes).
    Removing nrf_drv_gpiote.o(i.nrf_drv_gpiote_out_set), (16 bytes).
    Removing nrf_drv_gpiote.o(i.nrf_drv_gpiote_out_task_addr_get), (20 bytes).
    Removing nrf_drv_gpiote.o(i.nrf_drv_gpiote_out_task_disable), (36 bytes).
    Removing nrf_drv_gpiote.o(i.nrf_drv_gpiote_out_task_enable), (52 bytes).
    Removing nrf_drv_gpiote.o(i.nrf_drv_gpiote_out_task_force), (40 bytes).
    Removing nrf_drv_gpiote.o(i.nrf_drv_gpiote_out_task_trigger), (24 bytes).
    Removing nrf_drv_gpiote.o(i.nrf_drv_gpiote_out_toggle), (36 bytes).
    Removing nrf_drv_gpiote.o(i.nrf_drv_gpiote_out_uninit), (68 bytes).
    Removing nrf_drv_gpiote.o(i.nrf_drv_gpiote_uninit), (56 bytes).
    Removing nrf_drv_gpiote.o(i.nrf_gpio_cfg_default), (18 bytes).
    Removing nrf_drv_uart.o(.rev16_text), (4 bytes).
    Removing nrf_drv_uart.o(.revsh_text), (4 bytes).
    Removing nrf_drv_uart.o(.rrx_text), (6 bytes).
    Removing nrf_drv_uart.o(i.apply_config), (120 bytes).
    Removing nrf_drv_uart.o(i.nrf_drv_uart_errorsrc_get), (32 bytes).
    Removing nrf_drv_uart.o(i.nrf_drv_uart_init), (116 bytes).
    Removing nrf_drv_uart.o(i.nrf_drv_uart_rx), (292 bytes).
    Removing nrf_drv_uart.o(i.nrf_drv_uart_rx_abort), (32 bytes).
    Removing nrf_drv_uart.o(i.nrf_drv_uart_rx_disable), (24 bytes).
    Removing nrf_drv_uart.o(i.nrf_drv_uart_rx_enable), (24 bytes).
    Removing nrf_drv_uart.o(i.nrf_drv_uart_tx), (232 bytes).
    Removing nrf_drv_uart.o(i.nrf_drv_uart_tx_abort), (80 bytes).
    Removing nrf_drv_uart.o(i.nrf_drv_uart_uninit), (64 bytes).
    Removing nrf_drv_uart.o(i.nrf_gpio_cfg), (34 bytes).
    Removing nrf_drv_uart.o(i.nrf_gpio_cfg_default), (18 bytes).
    Removing nrf_drv_uart.o(i.nrf_gpio_cfg_input), (18 bytes).
    Removing nrf_drv_uart.o(i.nrf_gpio_cfg_output), (20 bytes).
    Removing nrf_drv_uart.o(i.pins_to_default), (84 bytes).
    Removing nrf_drv_uart.o(i.rx_enable), (24 bytes).
    Removing nrf_drv_uart.o(.constdata), (32 bytes).
    Removing pstorage.o(.rev16_text), (4 bytes).
    Removing pstorage.o(.revsh_text), (4 bytes).
    Removing pstorage.o(.rrx_text), (6 bytes).
    Removing pstorage.o(i.pstorage_access_status_get), (36 bytes).
    Removing pstorage.o(i.pstorage_block_identifier_get), (84 bytes).
    Removing pstorage.o(i.pstorage_store), (136 bytes).
    Removing coap.o(.rev16_text), (4 bytes).
    Removing coap.o(.revsh_text), (4 bytes).
    Removing coap.o(.rrx_text), (6 bytes).
    Removing coap.o(i.coap_message_abort), (4 bytes).
    Removing coap.o(i.coap_request_handler_register), (12 bytes).
    Removing coap_message.o(i.coap_message_ct_mask_get), (76 bytes).
    Removing coap_message.o(i.coap_message_opt_empty_add), (74 bytes).
    Removing coap_message.o(i.coap_message_opt_index_get), (50 bytes).
    Removing coap_message.o(i.coap_message_opt_opaque_add), (124 bytes).
    Removing coap_message.o(i.coap_message_opt_present), (44 bytes).
    Removing coap_message.o(i.coap_message_opt_str_add), (116 bytes).
    Removing coap_option.o(i.coap_opt_string_decode), (4 bytes).
    Removing coap_option.o(i.coap_opt_string_encode), (48 bytes).
    Removing coap_resource.o(i.coap_resource_root_get), (32 bytes).
    Removing coap_transport_ipv6.o(i.coap_security_destroy), (4 bytes).
    Removing coap_transport_ipv6.o(i.coap_security_setup), (4 bytes).
    Removing icmp6.o(i.icmp6_echo_request), (268 bytes).
    Removing icmp6.o(i.icmp6_ns_send), (356 bytes).
    Removing iot_pbuffer.o(.rev16_text), (4 bytes).
    Removing iot_pbuffer.o(.revsh_text), (4 bytes).
    Removing iot_pbuffer.o(.rrx_text), (6 bytes).
    Removing iot_pbuffer.o(i.iot_pbuffer_reallocate), (184 bytes).
    Removing iot_timer.o(i.iot_timer_wall_clock_delta_get), (80 bytes).
    Removing iot_timer.o(i.iot_timer_wall_clock_get), (24 bytes).
    Removing ipv6_medium_ble.o(.rev16_text), (4 bytes).
    Removing ipv6_medium_ble.o(.revsh_text), (4 bytes).
    Removing ipv6_medium_ble.o(.rrx_text), (6 bytes).
    Removing ipv6_medium_ble.o(i.ipv6_medium_eui64_set), (84 bytes).
    Removing ipv6_parse.o(i.ascii_to_hex), (28 bytes).
    Removing ipv6_parse.o(i.ipv6_parse_addr), (308 bytes).
    Removing ipv6_parse.o(i.reverse_string), (32 bytes).
    Removing udp6.o(i.udp6_socket_connect), (108 bytes).
    Removing udp6.o(i.udp6_socket_send), (336 bytes).
    Removing commissioning.o(.rev16_text), (4 bytes).
    Removing commissioning.o(.revsh_text), (4 bytes).
    Removing commissioning.o(.rrx_text), (6 bytes).
    Removing app_button.o(.rev16_text), (4 bytes).
    Removing app_button.o(.revsh_text), (4 bytes).
    Removing app_button.o(.rrx_text), (6 bytes).
    Removing app_button.o(i.app_button_disable), (48 bytes).
    Removing app_button.o(i.app_button_is_pushed), (44 bytes).
    Removing app_error.o(.rev16_text), (4 bytes).
    Removing app_error.o(.revsh_text), (4 bytes).
    Removing app_error.o(.rrx_text), (6 bytes).
    Removing app_error.o(i.app_error_handler), (32 bytes).
    Removing app_fifo.o(i.app_fifo_flush), (8 bytes).
    Removing app_fifo.o(i.app_fifo_get), (22 bytes).
    Removing app_fifo.o(i.app_fifo_init), (32 bytes).
    Removing app_fifo.o(i.app_fifo_put), (26 bytes).
    Removing app_fifo.o(i.app_fifo_read), (74 bytes).
    Removing app_fifo.o(i.app_fifo_write), (78 bytes).
    Removing app_fifo.o(i.fifo_get), (20 bytes).
    Removing app_fifo.o(i.fifo_put), (18 bytes).
    Removing app_timer.o(.rev16_text), (4 bytes).
    Removing app_timer.o(.revsh_text), (4 bytes).
    Removing app_timer.o(.rrx_text), (6 bytes).
    Removing app_timer.o(i.app_timer_cnt_diff_compute), (12 bytes).
    Removing app_timer.o(i.app_timer_cnt_get), (16 bytes).
    Removing app_timer.o(i.app_timer_stop_all), (72 bytes).
    Removing mem_manager.o(i.nrf_calloc), (36 bytes).
    Removing mem_manager.o(i.nrf_malloc), (24 bytes).
    Removing mem_manager.o(i.nrf_realloc), (2 bytes).
    Removing retarget.o(.rev16_text), (4 bytes).
    Removing retarget.o(.revsh_text), (4 bytes).
    Removing retarget.o(.rrx_text), (6 bytes).
    Removing retarget.o(i.fgetc), (18 bytes).
    Removing retarget.o(i.fputc), (14 bytes).
    Removing retarget.o(.data), (4 bytes).
    Removing retarget.o(.data), (4 bytes).
    Removing softdevice_handler.o(.rev16_text), (4 bytes).
    Removing softdevice_handler.o(.revsh_text), (4 bytes).
    Removing softdevice_handler.o(.rrx_text), (6 bytes).
    Removing softdevice_handler.o(i.softdevice_handler_isEnabled), (12 bytes).
    Removing softdevice_handler.o(i.softdevice_handler_sd_disable), (20 bytes).
    Removing arm_startup_nrf52.o(HEAP), (512 bytes).
    Removing system_nrf52.o(.rev16_text), (4 bytes).
    Removing system_nrf52.o(.revsh_text), (4 bytes).
    Removing system_nrf52.o(.rrx_text), (6 bytes).
    Removing system_nrf52.o(i.SystemCoreClockUpdate), (16 bytes).
    Removing ble_6lowpan.o(.rev16_text), (4 bytes).
    Removing ble_6lowpan.o(.revsh_text), (4 bytes).
    Removing ble_6lowpan.o(.rrx_text), (6 bytes).
    Removing ble_6lowpan.o(i.ble_6lowpan_interface_disconnect), (52 bytes).
    Removing ble_ipsp.o(.rev16_text), (4 bytes).
    Removing ble_ipsp.o(.revsh_text), (4 bytes).
    Removing ble_ipsp.o(.rrx_text), (6 bytes).
    Removing ble_ipsp.o(i.ble_ipsp_connect), (196 bytes).
    Removing ble_ipsp.o(.constdata), (24 bytes).
    Removing dadd.o(.text), (334 bytes).
    Removing dmul.o(.text), (228 bytes).
    Removing ddiv.o(.text), (222 bytes).
    Removing dfixul.o(.text), (48 bytes).
    Removing cdrcmple.o(.text), (48 bytes).
    Removing depilogue.o(.text), (186 bytes).

200 unused section(s) (total 10736 bytes) removed from the image.

==============================================================================

Image Symbol Table

    Local Symbols

    Symbol Name                              Value     Ov Type        Size  Object(Section)

    ../clib/../cmprslib/zerorunl2.c          0x00000000   Number         0  __dczerorl2.o ABSOLUTE
    ../clib/microlib/ctype/ctype.c           0x00000000   Number         0  ctype_c.o ABSOLUTE
    ../clib/microlib/ctype/ctype.c           0x00000000   Number         0  isspace_c.o ABSOLUTE
    ../clib/microlib/division.c              0x00000000   Number         0  uidiv.o ABSOLUTE
    ../clib/microlib/division.c              0x00000000   Number         0  uldiv.o ABSOLUTE
    ../clib/microlib/init/entry.s            0x00000000   Number         0  entry.o ABSOLUTE
    ../clib/microlib/init/entry.s            0x00000000   Number         0  entry11a.o ABSOLUTE
    ../clib/microlib/init/entry.s            0x00000000   Number         0  entry2.o ABSOLUTE
    ../clib/microlib/init/entry.s            0x00000000   Number         0  entry5.o ABSOLUTE
    ../clib/microlib/init/entry.s            0x00000000   Number         0  entry7a.o ABSOLUTE
    ../clib/microlib/init/entry.s            0x00000000   Number         0  entry7b.o ABSOLUTE
    ../clib/microlib/init/entry.s            0x00000000   Number         0  entry9a.o ABSOLUTE
    ../clib/microlib/init/entry.s            0x00000000   Number         0  entry8a.o ABSOLUTE
    ../clib/microlib/init/entry.s            0x00000000   Number         0  entry8b.o ABSOLUTE
    ../clib/microlib/init/entry.s            0x00000000   Number         0  entry11b.o ABSOLUTE
    ../clib/microlib/init/entry.s            0x00000000   Number         0  entry9b.o ABSOLUTE
    ../clib/microlib/init/entry.s            0x00000000   Number         0  entry10a.o ABSOLUTE
    ../clib/microlib/init/entry.s            0x00000000   Number         0  entry10b.o ABSOLUTE
    ../clib/microlib/longlong.c              0x00000000   Number         0  llshl.o ABSOLUTE
    ../clib/microlib/longlong.c              0x00000000   Number         0  llsshr.o ABSOLUTE
    ../clib/microlib/longlong.c              0x00000000   Number         0  llushr.o ABSOLUTE
    ../clib/microlib/printf/printf.c         0x00000000   Number         0  printf0.o ABSOLUTE
    ../clib/microlib/printf/printf.c         0x00000000   Number         0  printfb.o ABSOLUTE
    ../clib/microlib/printf/printf.c         0x00000000   Number         0  printfa.o ABSOLUTE
    ../clib/microlib/printf/printf.c         0x00000000   Number         0  printf2.o ABSOLUTE
    ../clib/microlib/printf/printf.c         0x00000000   Number         0  printf3.o ABSOLUTE
    ../clib/microlib/printf/printf.c         0x00000000   Number         0  printf4.o ABSOLUTE
    ../clib/microlib/printf/printf.c         0x00000000   Number         0  printf5.o ABSOLUTE
    ../clib/microlib/printf/printf.c         0x00000000   Number         0  printf6.o ABSOLUTE
    ../clib/microlib/printf/printf.c         0x00000000   Number         0  printf8.o ABSOLUTE
    ../clib/microlib/printf/printf.c         0x00000000   Number         0  printf1.o ABSOLUTE
    ../clib/microlib/printf/printf.c         0x00000000   Number         0  printf7.o ABSOLUTE
    ../clib/microlib/printf/stubs.s          0x00000000   Number         0  stubs.o ABSOLUTE
    ../clib/microlib/string/memcmp.c         0x00000000   Number         0  memcmp.o ABSOLUTE
    ../clib/microlib/string/memcpy.c         0x00000000   Number         0  memcpyb.o ABSOLUTE
    ../clib/microlib/string/memcpy.c         0x00000000   Number         0  memcpya.o ABSOLUTE
    ../clib/microlib/string/memset.c         0x00000000   Number         0  memseta.o ABSOLUTE
    ../clib/microlib/string/strlen.c         0x00000000   Number         0  strlen.o ABSOLUTE
    ../clib/microlib/string/strncmp.c        0x00000000   Number         0  strncmp.o ABSOLUTE
    ../clib/microlib/string/strncpy.c        0x00000000   Number         0  strncpy.o ABSOLUTE
    ../clib/microlib/string/strstr.c         0x00000000   Number         0  strstr.o ABSOLUTE
    ../clib/microlib/stubs.s                 0x00000000   Number         0  iusefp.o ABSOLUTE
    ../clib/scanf.c                          0x00000000   Number         0  _sgetc.o ABSOLUTE
    ../clib/scanf.c                          0x00000000   Number         0  scanf_char.o ABSOLUTE
    ../clib/scanf.c                          0x00000000   Number         0  _chval.o ABSOLUTE
    ../clib/scanf.c                          0x00000000   Number         0  _scanf_int.o ABSOLUTE
    ../clib/scanf.c                          0x00000000   Number         0  __0sscanf.o ABSOLUTE
    ../clib/scanf.c                          0x00000000   Number         0  _scanf.o ABSOLUTE
    ../fplib/microlib/fpadd.c                0x00000000   Number         0  dadd.o ABSOLUTE
    ../fplib/microlib/fpdiv.c                0x00000000   Number         0  ddiv.o ABSOLUTE
    ../fplib/microlib/fpepilogue.c           0x00000000   Number         0  depilogue.o ABSOLUTE
    ../fplib/microlib/fpfix.c                0x00000000   Number         0  dfixul.o ABSOLUTE
    ../fplib/microlib/fpmul.c                0x00000000   Number         0  dmul.o ABSOLUTE
    ..\..\..\..\..\..\..\..\components\ble\common\ble_advdata.c 0x00000000   Number         0  ble_advdata.o ABSOLUTE
    ..\..\..\..\..\..\..\..\components\ble\common\ble_conn_params.c 0x00000000   Number         0  ble_conn_params.o ABSOLUTE
    ..\..\..\..\..\..\..\..\components\ble\common\ble_srv_common.c 0x00000000   Number         0  ble_srv_common.o ABSOLUTE
    ..\..\..\..\..\..\..\..\components\drivers_nrf\common\nrf_drv_common.c 0x00000000   Number         0  nrf_drv_common.o ABSOLUTE
    ..\..\..\..\..\..\..\..\components\drivers_nrf\delay\nrf_delay.c 0x00000000   Number         0  nrf_delay.o ABSOLUTE
    ..\..\..\..\..\..\..\..\components\drivers_nrf\gpiote\nrf_drv_gpiote.c 0x00000000   Number         0  nrf_drv_gpiote.o ABSOLUTE
    ..\..\..\..\..\..\..\..\components\drivers_nrf\pstorage\pstorage.c 0x00000000   Number         0  pstorage.o ABSOLUTE
    ..\..\..\..\..\..\..\..\components\drivers_nrf\uart\nrf_drv_uart.c 0x00000000   Number         0  nrf_drv_uart.o ABSOLUTE
    ..\..\..\..\..\..\..\..\components\iot\coap\coap.c 0x00000000   Number         0  coap.o ABSOLUTE
    ..\..\..\..\..\..\..\..\components\iot\coap\coap_message.c 0x00000000   Number         0  coap_message.o ABSOLUTE
    ..\..\..\..\..\..\..\..\components\iot\coap\coap_option.c 0x00000000   Number         0  coap_option.o ABSOLUTE
    ..\..\..\..\..\..\..\..\components\iot\coap\coap_queue.c 0x00000000   Number         0  coap_queue.o ABSOLUTE
    ..\..\..\..\..\..\..\..\components\iot\coap\coap_resource.c 0x00000000   Number         0  coap_resource.o ABSOLUTE
    ..\..\..\..\..\..\..\..\components\iot\coap\coap_transport_ipv6.c 0x00000000   Number         0  coap_transport_ipv6.o ABSOLUTE
    ..\..\..\..\..\..\..\..\components\iot\common\ipv6_parse.c 0x00000000   Number         0  ipv6_parse.o ABSOLUTE
    ..\..\..\..\..\..\..\..\components\iot\context_manager\iot_context_manager.c 0x00000000   Number         0  iot_context_manager.o ABSOLUTE
    ..\..\..\..\..\..\..\..\components\iot\iot_timer\iot_timer.c 0x00000000   Number         0  iot_timer.o ABSOLUTE
    ..\..\..\..\..\..\..\..\components\iot\ipv6_stack\icmp6\icmp6.c 0x00000000   Number         0  icmp6.o ABSOLUTE
    ..\..\..\..\..\..\..\..\components\iot\ipv6_stack\ipv6\ipv6.c 0x00000000   Number         0  ipv6.o ABSOLUTE
    ..\..\..\..\..\..\..\..\components\iot\ipv6_stack\pbuffer\iot_pbuffer.c 0x00000000   Number         0  iot_pbuffer.o ABSOLUTE
    ..\..\..\..\..\..\..\..\components\iot\ipv6_stack\udp\udp6.c 0x00000000   Number         0  udp6.o ABSOLUTE
    ..\..\..\..\..\..\..\..\components\iot\ipv6_stack\utils\ipv6_utils.c 0x00000000   Number         0  ipv6_utils.o ABSOLUTE
    ..\..\..\..\..\..\..\..\components\iot\medium\ble_ncfgs\ble_ncfgs.c 0x00000000   Number         0  ble_ncfgs.o ABSOLUTE
    ..\..\..\..\..\..\..\..\components\iot\medium\commissioning\commissioning.c 0x00000000   Number         0  commissioning.o ABSOLUTE
    ..\..\..\..\..\..\..\..\components\iot\medium\ipv6_medium_ble.c 0x00000000   Number         0  ipv6_medium_ble.o ABSOLUTE
    ..\..\..\..\..\..\..\..\components\libraries\button\app_button.c 0x00000000   Number         0  app_button.o ABSOLUTE
    ..\..\..\..\..\..\..\..\components\libraries\fifo\app_fifo.c 0x00000000   Number         0  app_fifo.o ABSOLUTE
    ..\..\..\..\..\..\..\..\components\libraries\mem_manager\mem_manager.c 0x00000000   Number         0  mem_manager.o ABSOLUTE
    ..\..\..\..\..\..\..\..\components\libraries\timer\app_timer.c 0x00000000   Number         0  app_timer.o ABSOLUTE
    ..\..\..\..\..\..\..\..\components\libraries\trace\app_trace.c 0x00000000   Number         0  app_trace.o ABSOLUTE
    ..\..\..\..\..\..\..\..\components\libraries\uart\app_uart_fifo.c 0x00000000   Number         0  app_uart_fifo.o ABSOLUTE
    ..\..\..\..\..\..\..\..\components\libraries\uart\retarget.c 0x00000000   Number         0  retarget.o ABSOLUTE
    ..\..\..\..\..\..\..\..\components\libraries\util\app_error.c 0x00000000   Number         0  app_error.o ABSOLUTE
    ..\..\..\..\..\..\..\..\components\libraries\util\nrf_assert.c 0x00000000   Number         0  nrf_assert.o ABSOLUTE
    ..\..\..\..\..\..\..\..\components\softdevice\common\softdevice_handler\softdevice_handler.c 0x00000000   Number         0  softdevice_handler.o ABSOLUTE
    ..\..\..\..\..\..\..\bsp\bsp.c           0x00000000   Number         0  bsp.o ABSOLUTE
    ..\..\..\..\ble_6lowpan\ble_6lowpan.c    0x00000000   Number         0  ble_6lowpan.o ABSOLUTE
    ..\..\..\..\ble_ipsp\ble_ipsp.c          0x00000000   Number         0  ble_ipsp.o ABSOLUTE
    ..\..\..\main.c                          0x00000000   Number         0  main.o ABSOLUTE
    ..\\..\\..\\..\\..\\..\\..\\..\\components\\drivers_nrf\\common\\nrf_drv_common.c 0x00000000   Number         0  nrf_drv_common.o ABSOLUTE
    ..\\..\\..\\..\\..\\..\\..\\..\\components\\drivers_nrf\\delay\\nrf_delay.c 0x00000000   Number         0  nrf_delay.o ABSOLUTE
    ..\\..\\..\\..\\..\\..\\..\\..\\components\\drivers_nrf\\gpiote\\nrf_drv_gpiote.c 0x00000000   Number         0  nrf_drv_gpiote.o ABSOLUTE
    ..\\..\\..\\..\\..\\..\\..\\..\\components\\drivers_nrf\\pstorage\\pstorage.c 0x00000000   Number         0  pstorage.o ABSOLUTE
    ..\\..\\..\\..\\..\\..\\..\\..\\components\\drivers_nrf\\uart\\nrf_drv_uart.c 0x00000000   Number         0  nrf_drv_uart.o ABSOLUTE
    ..\\..\\..\\..\\..\\..\\..\\..\\components\\iot\\coap\\coap.c 0x00000000   Number         0  coap.o ABSOLUTE
    ..\\..\\..\\..\\..\\..\\..\\..\\components\\iot\\ipv6_stack\\pbuffer\\iot_pbuffer.c 0x00000000   Number         0  iot_pbuffer.o ABSOLUTE
    ..\\..\\..\\..\\..\\..\\..\\..\\components\\iot\\medium\\commissioning\\commissioning.c 0x00000000   Number         0  commissioning.o ABSOLUTE
    ..\\..\\..\\..\\..\\..\\..\\..\\components\\iot\\medium\\ipv6_medium_ble.c 0x00000000   Number         0  ipv6_medium_ble.o ABSOLUTE
    ..\\..\\..\\..\\..\\..\\..\\..\\components\\libraries\\button\\app_button.c 0x00000000   Number         0  app_button.o ABSOLUTE
    ..\\..\\..\\..\\..\\..\\..\\..\\components\\libraries\\timer\\app_timer.c 0x00000000   Number         0  app_timer.o ABSOLUTE
    ..\\..\\..\\..\\..\\..\\..\\..\\components\\libraries\\uart\\app_uart_fifo.c 0x00000000   Number         0  app_uart_fifo.o ABSOLUTE
    ..\\..\\..\\..\\..\\..\\..\\..\\components\\libraries\\uart\\retarget.c 0x00000000   Number         0  retarget.o ABSOLUTE
    ..\\..\\..\\..\\..\\..\\..\\..\\components\\libraries\\util\\app_error.c 0x00000000   Number         0  app_error.o ABSOLUTE
    ..\\..\\..\\..\\..\\..\\..\\..\\components\\softdevice\\common\\softdevice_handler\\softdevice_handler.c 0x00000000   Number         0  softdevice_handler.o ABSOLUTE
    ..\\..\\..\\..\\..\\..\\..\\bsp\\bsp.c   0x00000000   Number         0  bsp.o ABSOLUTE
    ..\\..\\..\\..\\ble_6lowpan\\ble_6lowpan.c 0x00000000   Number         0  ble_6lowpan.o ABSOLUTE
    ..\\..\\..\\..\\ble_ipsp\\ble_ipsp.c     0x00000000   Number         0  ble_ipsp.o ABSOLUTE
    ..\\..\\..\\main.c                       0x00000000   Number         0  main.o ABSOLUTE
    RTE\Device\nRF52832_xxAA\arm_startup_nrf52.s 0x00000000   Number         0  arm_startup_nrf52.o ABSOLUTE
    RTE\Device\nRF52832_xxAA\system_nrf52.c  0x00000000   Number         0  system_nrf52.o ABSOLUTE
    RTE\\Device\\nRF52832_xxAA\\system_nrf52.c 0x00000000   Number         0  system_nrf52.o ABSOLUTE
    cdrcmple.s                               0x00000000   Number         0  cdrcmple.o ABSOLUTE
    dc.s                                     0x00000000   Number         0  dc.o ABSOLUTE
    handlers.s                               0x00000000   Number         0  handlers.o ABSOLUTE
    init.s                                   0x00000000   Number         0  init.o ABSOLUTE
    RESET                                    0x0001f000   Section     1024  arm_startup_nrf52.o(RESET)
    .ARM.Collect$$$$00000000                 0x0001f400   Section        0  entry.o(.ARM.Collect$$$$00000000)
    .ARM.Collect$$$$00000001                 0x0001f400   Section        4  entry2.o(.ARM.Collect$$$$00000001)
    .ARM.Collect$$$$00000004                 0x0001f404   Section        4  entry5.o(.ARM.Collect$$$$00000004)
    .ARM.Collect$$$$00000008                 0x0001f408   Section        0  entry7b.o(.ARM.Collect$$$$00000008)
    .ARM.Collect$$$$0000000A                 0x0001f408   Section        0  entry8b.o(.ARM.Collect$$$$0000000A)
    .ARM.Collect$$$$0000000B                 0x0001f408   Section        8  entry9a.o(.ARM.Collect$$$$0000000B)
    .ARM.Collect$$$$0000000D                 0x0001f410   Section        0  entry10a.o(.ARM.Collect$$$$0000000D)
    .ARM.Collect$$$$0000000F                 0x0001f410   Section        0  entry11a.o(.ARM.Collect$$$$0000000F)
    .ARM.Collect$$$$00002712                 0x0001f410   Section        4  entry2.o(.ARM.Collect$$$$00002712)
    __lit__00000000                          0x0001f410   Data           4  entry2.o(.ARM.Collect$$$$00002712)
    .emb_text                                0x0001f414   Section      118  nrf_delay.o(.emb_text)
    $v0                                      0x0001f414   Number         0  nrf_delay.o(.emb_text)
    .emb_text                                0x0001f48c   Section      118  app_timer.o(.emb_text)
    $v0                                      0x0001f48c   Number         0  app_timer.o(.emb_text)
    .text                                    0x0001f504   Section       36  arm_startup_nrf52.o(.text)
    $v0                                      0x0001f504   Number         0  arm_startup_nrf52.o(.text)
    .text                                    0x0001f528   Section        0  memcpya.o(.text)
    .text                                    0x0001f54c   Section        0  memseta.o(.text)
    .text                                    0x0001f570   Section        0  strncpy.o(.text)
    .text                                    0x0001f588   Section        0  strlen.o(.text)
    .text                                    0x0001f596   Section        0  memcmp.o(.text)
    .text                                    0x0001f5b0   Section        0  strncmp.o(.text)
    .text                                    0x0001f5ce   Section        0  uidiv.o(.text)
    .text                                    0x0001f5fc   Section       36  init.o(.text)
    .text                                    0x0001f620   Section        0  __dczerorl2.o(.text)
    i.GPIOTE_IRQHandler                      0x0001f678   Section        0  nrf_drv_gpiote.o(i.GPIOTE_IRQHandler)
    i.NVIC_ClearPendingIRQ                   0x0001f77c   Section        0  app_timer.o(i.NVIC_ClearPendingIRQ)
    NVIC_ClearPendingIRQ                     0x0001f77d   Thumb Code    22  app_timer.o(i.NVIC_ClearPendingIRQ)
    i.NVIC_EnableIRQ                         0x0001f792   Section        0  app_timer.o(i.NVIC_EnableIRQ)
    NVIC_EnableIRQ                           0x0001f793   Thumb Code    22  app_timer.o(i.NVIC_EnableIRQ)
    i.NVIC_SetPendingIRQ                     0x0001f7a8   Section        0  app_timer.o(i.NVIC_SetPendingIRQ)
    NVIC_SetPendingIRQ                       0x0001f7a9   Thumb Code    22  app_timer.o(i.NVIC_SetPendingIRQ)
    i.NVIC_SetPriority                       0x0001f7be   Section        0  app_timer.o(i.NVIC_SetPriority)
    NVIC_SetPriority                         0x0001f7bf   Thumb Code    32  app_timer.o(i.NVIC_SetPriority)
    i.RTC1_IRQHandler                        0x0001f7e0   Section        0  app_timer.o(i.RTC1_IRQHandler)
    i.SWI0_EGU0_IRQHandler                   0x0001f804   Section        0  app_timer.o(i.SWI0_EGU0_IRQHandler)
    i.SWI2_EGU2_IRQHandler                   0x0001f808   Section        0  softdevice_handler.o(i.SWI2_EGU2_IRQHandler)
    i.SystemInit                             0x0001f830   Section        0  system_nrf52.o(i.SystemInit)
    i.UARTE0_UART0_IRQHandler                0x0001f950   Section        0  nrf_drv_uart.o(i.UARTE0_UART0_IRQHandler)
    i.__0sprintf$1                           0x0001fae0   Section        0  printf1.o(i.__0sprintf$1)
    i.__scatterload_copy                     0x0001fb08   Section       14  handlers.o(i.__scatterload_copy)
    i.__scatterload_null                     0x0001fb16   Section        2  handlers.o(i.__scatterload_null)
    i.__scatterload_zeroinit                 0x0001fb18   Section       14  handlers.o(i.__scatterload_zeroinit)
    i._printf_core                           0x0001fb28   Section        0  printf1.o(i._printf_core)
    _printf_core                             0x0001fb29   Thumb Code   336  printf1.o(i._printf_core)
    i._sputc                                 0x0001fc7c   Section        0  printf1.o(i._sputc)
    _sputc                                   0x0001fc7d   Thumb Code    10  printf1.o(i._sputc)
    i.action_timeout_handler                 0x0001fc88   Section        0  commissioning.o(i.action_timeout_handler)
    action_timeout_handler                   0x0001fc89   Thumb Code     8  commissioning.o(i.action_timeout_handler)
    i.add_ip_cfg_cp_characteristic           0x0001fc94   Section        0  ble_ncfgs.o(i.add_ip_cfg_cp_characteristic)
    add_ip_cfg_cp_characteristic             0x0001fc95   Thumb Code   154  ble_ncfgs.o(i.add_ip_cfg_cp_characteristic)
    i.add_keys_store_characteristic          0x0001fd34   Section        0  ble_ncfgs.o(i.add_keys_store_characteristic)
    add_keys_store_characteristic            0x0001fd35   Thumb Code   154  ble_ncfgs.o(i.add_keys_store_characteristic)
    i.add_sllao_opt                          0x0001fdd4   Section        0  icmp6.o(i.add_sllao_opt)
    add_sllao_opt                            0x0001fdd5   Thumb Code    30  icmp6.o(i.add_sllao_opt)
    i.add_ssid_characteristic                0x0001fdf4   Section        0  ble_ncfgs.o(i.add_ssid_characteristic)
    add_ssid_characteristic                  0x0001fdf5   Thumb Code   154  ble_ncfgs.o(i.add_ssid_characteristic)
    i.addr_check                             0x0001fe94   Section        0  ipv6.o(i.addr_check)
    addr_check                               0x0001fe95   Thumb Code   106  ipv6.o(i.addr_check)
    i.addr_free                              0x0001ff08   Section        0  ipv6.o(i.addr_free)
    addr_free                                0x0001ff09   Thumb Code    50  ipv6.o(i.addr_free)
    i.addr_set                               0x0001ff44   Section        0  ipv6.o(i.addr_set)
    addr_set                                 0x0001ff45   Thumb Code   152  ipv6.o(i.addr_set)
    i.adv_data_encode                        0x0001ffe4   Section        0  ble_advdata.o(i.adv_data_encode)
    i.adv_params_apply                       0x000201e8   Section        0  ipv6_medium_ble.o(i.adv_params_apply)
    adv_params_apply                         0x000201e9   Thumb Code    32  ipv6_medium_ble.o(i.adv_params_apply)
    i.app_button_enable                      0x0002020c   Section        0  app_button.o(i.app_button_enable)
    i.app_button_init                        0x00020230   Section        0  app_button.o(i.app_button_init)
    i.app_coap_time_tick                     0x000202a0   Section        0  main.o(i.app_coap_time_tick)
    app_coap_time_tick                       0x000202a1   Thumb Code     4  main.o(i.app_coap_time_tick)
    i.app_error_handler                      0x000202a4   Section        0  main.o(i.app_error_handler)
    i.app_error_notify                       0x00020314   Section        0  coap.o(i.app_error_notify)
    app_error_notify                         0x00020315   Thumb Code    12  coap.o(i.app_error_notify)
    i.app_notify                             0x00020324   Section        0  pstorage.o(i.app_notify)
    app_notify                               0x00020325   Thumb Code    36  pstorage.o(i.app_notify)
    i.app_notify_error_state_transit         0x00020350   Section        0  pstorage.o(i.app_notify_error_state_transit)
    app_notify_error_state_transit           0x00020351   Thumb Code    30  pstorage.o(i.app_notify_error_state_transit)
    i.app_timer_create                       0x00020374   Section        0  app_timer.o(i.app_timer_create)
    i.app_timer_init                         0x00020398   Section        0  app_timer.o(i.app_timer_init)
    i.app_timer_start                        0x00020428   Section        0  app_timer.o(i.app_timer_start)
    i.app_timer_stop                         0x000204a8   Section        0  app_timer.o(i.app_timer_stop)
    i.ble_6lowpan_evt_handler                0x000204f8   Section        0  ipv6.o(i.ble_6lowpan_evt_handler)
    ble_6lowpan_evt_handler                  0x000204f9   Thumb Code   250  ipv6.o(i.ble_6lowpan_evt_handler)
    i.ble_6lowpan_init                       0x000205f8   Section        0  ble_6lowpan.o(i.ble_6lowpan_init)
    i.ble_6lowpan_interface_send             0x00020634   Section        0  ble_6lowpan.o(i.ble_6lowpan_interface_send)
    i.ble_advdata_set                        0x000206f4   Section        0  ble_advdata.o(i.ble_advdata_set)
    i.ble_device_addr_encode                 0x0002075c   Section        0  ble_advdata.o(i.ble_device_addr_encode)
    ble_device_addr_encode                   0x0002075d   Thumb Code    94  ble_advdata.o(i.ble_device_addr_encode)
    i.ble_evt_dispatch                       0x000207ba   Section        0  ipv6_medium_ble.o(i.ble_evt_dispatch)
    ble_evt_dispatch                         0x000207bb   Thumb Code    24  ipv6_medium_ble.o(i.ble_evt_dispatch)
    i.ble_ipsp_disconnect                    0x000207d4   Section        0  ble_ipsp.o(i.ble_ipsp_disconnect)
    i.ble_ipsp_evt_handler                   0x0002082c   Section        0  ble_ipsp.o(i.ble_ipsp_evt_handler)
    i.ble_ipsp_init                          0x00020b1c   Section        0  ble_ipsp.o(i.ble_ipsp_init)
    i.ble_ipsp_send                          0x00020b5c   Section        0  ble_ipsp.o(i.ble_ipsp_send)
    i.ble_ncfgs_ble_evt_handler              0x00020ba8   Section        0  ble_ncfgs.o(i.ble_ncfgs_ble_evt_handler)
    i.ble_ncfgs_create_database              0x00020cb4   Section        0  ble_ncfgs.o(i.ble_ncfgs_create_database)
    ble_ncfgs_create_database                0x00020cb5   Thumb Code    74  ble_ncfgs.o(i.ble_ncfgs_create_database)
    i.ble_ncfgs_init                         0x00020d08   Section        0  ble_ncfgs.o(i.ble_ncfgs_init)
    i.ble_stack_init                         0x00020d28   Section        0  ipv6_medium_ble.o(i.ble_stack_init)
    ble_stack_init                           0x00020d29   Thumb Code    62  ipv6_medium_ble.o(i.ble_stack_init)
    i.blink_timeout_handler                  0x00020d78   Section        0  main.o(i.blink_timeout_handler)
    blink_timeout_handler                    0x00020d79   Thumb Code   138  main.o(i.blink_timeout_handler)
    i.block_init                             0x00020e0c   Section        0  mem_manager.o(i.block_init)
    block_init                               0x00020e0d   Thumb Code    28  mem_manager.o(i.block_init)
    i.button_event_handler                   0x00020e2c   Section        0  main.o(i.button_event_handler)
    button_event_handler                     0x00020e2d   Thumb Code    14  main.o(i.button_event_handler)
    i.channel_free                           0x00020e3c   Section        0  nrf_drv_gpiote.o(i.channel_free)
    channel_free                             0x00020e3d   Thumb Code    22  nrf_drv_gpiote.o(i.channel_free)
    i.channel_init                           0x00020e58   Section        0  ble_ipsp.o(i.channel_init)
    channel_init                             0x00020e59   Thumb Code    42  ble_ipsp.o(i.channel_init)
    i.channel_port_alloc                     0x00020e88   Section        0  nrf_drv_gpiote.o(i.channel_port_alloc)
    channel_port_alloc                       0x00020e89   Thumb Code    66  nrf_drv_gpiote.o(i.channel_port_alloc)
    i.channel_port_get                       0x00020ed0   Section        0  nrf_drv_gpiote.o(i.channel_port_get)
    channel_port_get                         0x00020ed1   Thumb Code    10  nrf_drv_gpiote.o(i.channel_port_get)
    i.channel_search                         0x00020ee0   Section        0  ble_ipsp.o(i.channel_search)
    channel_search                           0x00020ee1   Thumb Code    38  ble_ipsp.o(i.channel_search)
    i.clear_operation_execute                0x00020f0c   Section        0  pstorage.o(i.clear_operation_execute)
    clear_operation_execute                  0x00020f0d   Thumb Code   240  pstorage.o(i.clear_operation_execute)
    i.clear_post_processing_run              0x00021008   Section        0  pstorage.o(i.clear_post_processing_run)
    clear_post_processing_run                0x00021009   Thumb Code    28  pstorage.o(i.clear_post_processing_run)
    i.cmd_process                            0x00021028   Section        0  pstorage.o(i.cmd_process)
    cmd_process                              0x00021029   Thumb Code    44  pstorage.o(i.cmd_process)
    i.cmd_queue_element_init                 0x0002105c   Section        0  pstorage.o(i.cmd_queue_element_init)
    cmd_queue_element_init                   0x0002105d   Thumb Code    28  pstorage.o(i.cmd_queue_element_init)
    i.cmd_queue_enqueue                      0x0002107c   Section        0  pstorage.o(i.cmd_queue_enqueue)
    cmd_queue_enqueue                        0x0002107d   Thumb Code    74  pstorage.o(i.cmd_queue_enqueue)
    i.coap_endpoints_init                    0x000210d0   Section        0  main.o(i.coap_endpoints_init)
    coap_endpoints_init                      0x000210d1   Thumb Code   284  main.o(i.coap_endpoints_init)
    i.coap_error_handler                     0x0002121c   Section        0  main.o(i.coap_error_handler)
    coap_error_handler                       0x0002121d   Thumb Code     2  main.o(i.coap_error_handler)
    i.coap_error_handler_register            0x00021220   Section        0  coap.o(i.coap_error_handler_register)
    i.coap_init                              0x0002122c   Section        0  coap.o(i.coap_init)
    i.coap_message_accept_mask_get           0x0002125c   Section        0  coap_message.o(i.coap_message_accept_mask_get)
    i.coap_message_create                    0x000212a8   Section        0  coap_message.o(i.coap_message_create)
    i.coap_message_ct_match_select           0x000212fa   Section        0  coap_message.o(i.coap_message_ct_match_select)
    i.coap_message_decode                    0x0002136c   Section        0  coap_message.o(i.coap_message_decode)
    i.coap_message_delete                    0x00021432   Section        0  coap.o(i.coap_message_delete)
    i.coap_message_encode                    0x00021448   Section        0  coap_message.o(i.coap_message_encode)
    i.coap_message_new                       0x00021538   Section        0  coap.o(i.coap_message_new)
    i.coap_message_opt_uint_add              0x000215ac   Section        0  coap_message.o(i.coap_message_opt_uint_add)
    i.coap_message_payload_set               0x00021634   Section        0  coap_message.o(i.coap_message_payload_set)
    i.coap_message_remote_addr_set           0x0002164c   Section        0  coap_message.o(i.coap_message_remote_addr_set)
    i.coap_message_send                      0x00021658   Section        0  coap.o(i.coap_message_send)
    i.coap_opt_uint_decode                   0x0002165c   Section        0  coap_option.o(i.coap_opt_uint_decode)
    i.coap_opt_uint_encode                   0x000216d4   Section        0  coap_option.o(i.coap_opt_uint_encode)
    i.coap_queue_add                         0x0002172c   Section        0  coap_queue.o(i.coap_queue_add)
    i.coap_queue_init                        0x00021788   Section        0  coap_queue.o(i.coap_queue_init)
    i.coap_queue_item_by_mid_get             0x000217bc   Section        0  coap_queue.o(i.coap_queue_item_by_mid_get)
    i.coap_queue_item_by_token_get           0x000217f4   Section        0  coap_queue.o(i.coap_queue_item_by_token_get)
    i.coap_queue_item_next_get               0x00021840   Section        0  coap_queue.o(i.coap_queue_item_next_get)
    i.coap_queue_remove                      0x00021894   Section        0  coap_queue.o(i.coap_queue_remove)
    i.coap_resource_child_add                0x000218d8   Section        0  coap_resource.o(i.coap_resource_child_add)
    i.coap_resource_create                   0x000218fc   Section        0  coap_resource.o(i.coap_resource_create)
    i.coap_resource_get                      0x00021944   Section        0  coap_resource.o(i.coap_resource_get)
    i.coap_resource_init                     0x000219ac   Section        0  coap_resource.o(i.coap_resource_init)
    i.coap_resource_well_known_generate      0x000219b8   Section        0  coap_resource.o(i.coap_resource_well_known_generate)
    i.coap_time_tick                         0x00021a04   Section        0  coap.o(i.coap_time_tick)
    i.coap_transport_init                    0x00021a84   Section        0  coap_transport_ipv6.o(i.coap_transport_init)
    i.coap_transport_process                 0x00021ae4   Section        0  coap_transport_ipv6.o(i.coap_transport_process)
    i.coap_transport_read                    0x00021ae8   Section        0  coap.o(i.coap_transport_read)
    i.coap_transport_write                   0x00021d30   Section        0  coap_transport_ipv6.o(i.coap_transport_write)
    i.command_end_procedure_run              0x00021db8   Section        0  pstorage.o(i.command_end_procedure_run)
    command_end_procedure_run                0x00021db9   Thumb Code    60  pstorage.o(i.command_end_procedure_run)
    i.commissioning_adv_params_get           0x00021df8   Section        0  commissioning.o(i.commissioning_adv_params_get)
    i.commissioning_ble_evt_handler          0x00021e1c   Section        0  commissioning.o(i.commissioning_ble_evt_handler)
    i.commissioning_evt_handler              0x00021f0c   Section        0  ipv6_medium_ble.o(i.commissioning_evt_handler)
    i.commissioning_gap_params_get           0x00021f84   Section        0  commissioning.o(i.commissioning_gap_params_get)
    i.commissioning_id_mode_cb               0x00021fa8   Section        0  main.o(i.commissioning_id_mode_cb)
    i.commissioning_init                     0x00021fd4   Section        0  commissioning.o(i.commissioning_init)
    i.commissioning_joining_mode_timer_ctrl  0x000220dc   Section        0  commissioning.o(i.commissioning_joining_mode_timer_ctrl)
    i.commissioning_node_mode_change         0x000220fc   Section        0  commissioning.o(i.commissioning_node_mode_change)
    i.commissioning_power_off_cb             0x0002218c   Section        0  main.o(i.commissioning_power_off_cb)
    i.commissioning_settings_clear           0x00022198   Section        0  commissioning.o(i.commissioning_settings_clear)
    i.commissioning_time_tick                0x000221c8   Section        0  commissioning.o(i.commissioning_time_tick)
    i.commissioning_timer_start              0x00022200   Section        0  commissioning.o(i.commissioning_timer_start)
    commissioning_timer_start                0x00022201   Thumb Code    20  commissioning.o(i.commissioning_timer_start)
    i.commissioning_timer_stop_reset         0x00022218   Section        0  commissioning.o(i.commissioning_timer_stop_reset)
    commissioning_timer_stop_reset           0x00022219   Thumb Code    20  commissioning.o(i.commissioning_timer_stop_reset)
    i.compare_reg_update                     0x00022230   Section        0  app_timer.o(i.compare_reg_update)
    compare_reg_update                       0x00022231   Thumb Code   160  app_timer.o(i.compare_reg_update)
    i.config_mode_adv_params_set             0x000222dc   Section        0  commissioning.o(i.config_mode_adv_params_set)
    config_mode_adv_params_set               0x000222dd   Thumb Code    90  commissioning.o(i.config_mode_adv_params_set)
    i.config_mode_gap_params_set             0x00022340   Section        0  commissioning.o(i.config_mode_gap_params_set)
    config_mode_gap_params_set               0x00022341   Thumb Code    60  commissioning.o(i.config_mode_gap_params_set)
    i.config_mode_timeout_handler            0x00022390   Section        0  commissioning.o(i.config_mode_timeout_handler)
    config_mode_timeout_handler              0x00022391   Thumb Code    38  commissioning.o(i.config_mode_timeout_handler)
    i.conn_int_encode                        0x000223c0   Section        0  ble_advdata.o(i.conn_int_encode)
    conn_int_encode                          0x000223c1   Thumb Code   136  ble_advdata.o(i.conn_int_encode)
    i.connectable_mode_enter                 0x00022448   Section        0  main.o(i.connectable_mode_enter)
    connectable_mode_enter                   0x00022449   Thumb Code    30  main.o(i.connectable_mode_enter)
    i.content_format_to_bit                  0x0002246c   Section        0  coap_message.o(i.content_format_to_bit)
    content_format_to_bit                    0x0002246d   Thumb Code    52  coap_message.o(i.content_format_to_bit)
    i.context_find_by_cid                    0x000224a0   Section        0  iot_context_manager.o(i.context_find_by_cid)
    context_find_by_cid                      0x000224a1   Thumb Code    62  iot_context_manager.o(i.context_find_by_cid)
    i.context_find_by_prefix                 0x000224e4   Section        0  iot_context_manager.o(i.context_find_by_prefix)
    context_find_by_prefix                   0x000224e5   Thumb Code   166  iot_context_manager.o(i.context_find_by_prefix)
    i.context_init                           0x00022590   Section        0  iot_context_manager.o(i.context_init)
    context_init                             0x00022591   Thumb Code    20  iot_context_manager.o(i.context_init)
    i.context_table_find                     0x000225a4   Section        0  iot_context_manager.o(i.context_table_find)
    context_table_find                       0x000225a5   Thumb Code    16  iot_context_manager.o(i.context_table_find)
    i.context_table_init                     0x000225b8   Section        0  iot_context_manager.o(i.context_table_init)
    context_table_init                       0x000225b9   Thumb Code    56  iot_context_manager.o(i.context_table_init)
    i.create_response                        0x000225f4   Section        0  coap.o(i.create_response)
    create_response                          0x000225f5   Thumb Code   166  coap.o(i.create_response)
    i.ctrlp_value_decode                     0x0002269c   Section        0  ble_ncfgs.o(i.ctrlp_value_decode)
    ctrlp_value_decode                       0x0002269d   Thumb Code   104  ble_ncfgs.o(i.ctrlp_value_decode)
    i.data_page_erase_state_run              0x00022708   Section        0  pstorage.o(i.data_page_erase_state_run)
    data_page_erase_state_run                0x00022709   Thumb Code    80  pstorage.o(i.data_page_erase_state_run)
    i.data_to_swap_write_state_run           0x0002275c   Section        0  pstorage.o(i.data_to_swap_write_state_run)
    data_to_swap_write_state_run             0x0002275d   Thumb Code    28  pstorage.o(i.data_to_swap_write_state_run)
    i.decode_option                          0x0002277c   Section        0  coap_message.o(i.decode_option)
    decode_option                            0x0002277d   Thumb Code   122  coap_message.o(i.decode_option)
    i.detection_delay_timeout_handler        0x000227f8   Section        0  app_button.o(i.detection_delay_timeout_handler)
    detection_delay_timeout_handler          0x000227f9   Thumb Code    92  app_button.o(i.detection_delay_timeout_handler)
    i.echo_reply_send                        0x00022858   Section        0  icmp6.o(i.echo_reply_send)
    echo_reply_send                          0x00022859   Thumb Code   294  icmp6.o(i.echo_reply_send)
    i.elapsed_ticks_acquire                  0x00022980   Section        0  app_timer.o(i.elapsed_ticks_acquire)
    elapsed_ticks_acquire                    0x00022981   Thumb Code    58  app_timer.o(i.elapsed_ticks_acquire)
    i.encode_option                          0x000229c0   Section        0  coap_message.o(i.encode_option)
    encode_option                            0x000229c1   Thumb Code   192  coap_message.o(i.encode_option)
    i.flash_api_err_code_process             0x00022a80   Section        0  pstorage.o(i.flash_api_err_code_process)
    flash_api_err_code_process               0x00022a81   Thumb Code    24  pstorage.o(i.flash_api_err_code_process)
    i.flash_operation_success_run            0x00022a9c   Section        0  pstorage.o(i.flash_operation_success_run)
    flash_operation_success_run              0x00022a9d   Thumb Code   126  pstorage.o(i.flash_operation_success_run)
    i.flash_page_erase                       0x00022b28   Section        0  pstorage.o(i.flash_page_erase)
    flash_page_erase                         0x00022b29   Thumb Code     6  pstorage.o(i.flash_page_erase)
    i.flash_write                            0x00022b2e   Section        0  pstorage.o(i.flash_write)
    flash_write                              0x00022b2f   Thumb Code     6  pstorage.o(i.flash_write)
    i.gap_params_apply                       0x00022b34   Section        0  ipv6_medium_ble.o(i.gap_params_apply)
    gap_params_apply                         0x00022b35   Thumb Code    64  ipv6_medium_ble.o(i.gap_params_apply)
    i.generate_path                          0x00022b78   Section        0  coap_resource.o(i.generate_path)
    generate_path                            0x00022b79   Thumb Code   214  coap_resource.o(i.generate_path)
    i.get_block_cat                          0x00022c5c   Section        0  mem_manager.o(i.get_block_cat)
    get_block_cat                            0x00022c5d   Thumb Code    56  mem_manager.o(i.get_block_cat)
    i.get_block_size                         0x00022c98   Section        0  mem_manager.o(i.get_block_size)
    get_block_size                           0x00022c99   Thumb Code    18  mem_manager.o(i.get_block_size)
    i.gpiote_event_handler                   0x00022cb0   Section        0  app_button.o(i.gpiote_event_handler)
    gpiote_event_handler                     0x00022cb1   Thumb Code    78  app_button.o(i.gpiote_event_handler)
    i.handle_led_request                     0x00022d08   Section        0  main.o(i.handle_led_request)
    handle_led_request                       0x00022d09   Thumb Code   322  main.o(i.handle_led_request)
    i.head_restore_state_run                 0x00022e50   Section        0  pstorage.o(i.head_restore_state_run)
    head_restore_state_run                   0x00022e51   Thumb Code   110  pstorage.o(i.head_restore_state_run)
    i.icmp6_handler                          0x00022ec8   Section        0  main.o(i.icmp6_handler)
    i.icmp6_init                             0x00022ecc   Section        0  icmp6.o(i.icmp6_init)
    i.icmp6_input                            0x00022ee0   Section        0  icmp6.o(i.icmp6_input)
    i.icmp6_receive_register                 0x00022fc4   Section        0  icmp6.o(i.icmp6_receive_register)
    i.icmp6_rs_send                          0x00022fe4   Section        0  icmp6.o(i.icmp6_rs_send)
    i.icmp_ip_header                         0x000230f4   Section        0  icmp6.o(i.icmp_ip_header)
    icmp_ip_header                           0x000230f5   Thumb Code    18  icmp6.o(i.icmp_ip_header)
    i.identity_mode_timeout_handler          0x00023108   Section        0  commissioning.o(i.identity_mode_timeout_handler)
    i.instance_init                          0x00023124   Section        0  ble_6lowpan.o(i.instance_init)
    instance_init                            0x00023125   Thumb Code    38  ble_6lowpan.o(i.instance_init)
    i.interface_add                          0x00023150   Section        0  ble_6lowpan.o(i.interface_add)
    interface_add                            0x00023151   Thumb Code    76  ble_6lowpan.o(i.interface_add)
    i.interface_reset                        0x000231a4   Section        0  ipv6.o(i.interface_reset)
    interface_reset                          0x000231a5   Thumb Code    38  ipv6.o(i.interface_reset)
    i.intern_softdevice_events_execute       0x000231cc   Section        0  softdevice_handler.o(i.intern_softdevice_events_execute)
    i.internal_coap_message_send             0x00023244   Section        0  coap.o(i.internal_coap_message_send)
    i.iot_context_manager_get_by_addr        0x0002334c   Section        0  iot_context_manager.o(i.iot_context_manager_get_by_addr)
    i.iot_context_manager_get_by_cid         0x0002338c   Section        0  iot_context_manager.o(i.iot_context_manager_get_by_cid)
    i.iot_context_manager_init               0x000233d0   Section        0  iot_context_manager.o(i.iot_context_manager_init)
    i.iot_context_manager_remove             0x000233e8   Section        0  iot_context_manager.o(i.iot_context_manager_remove)
    i.iot_context_manager_table_alloc        0x00023440   Section        0  iot_context_manager.o(i.iot_context_manager_table_alloc)
    i.iot_context_manager_table_free         0x00023484   Section        0  iot_context_manager.o(i.iot_context_manager_table_free)
    i.iot_context_manager_update             0x000234b8   Section        0  iot_context_manager.o(i.iot_context_manager_update)
    i.iot_pbuffer_allocate                   0x000235ac   Section        0  iot_pbuffer.o(i.iot_pbuffer_allocate)
    i.iot_pbuffer_free                       0x00023620   Section        0  iot_pbuffer.o(i.iot_pbuffer_free)
    i.iot_pbuffer_init                       0x00023660   Section        0  iot_pbuffer.o(i.iot_pbuffer_init)
    i.iot_timer_client_list_set              0x0002368c   Section        0  iot_timer.o(i.iot_timer_client_list_set)
    i.iot_timer_tick_callback                0x000236d4   Section        0  main.o(i.iot_timer_tick_callback)
    iot_timer_tick_callback                  0x000236d5   Thumb Code    24  main.o(i.iot_timer_tick_callback)
    i.iot_timer_update                       0x000236ec   Section        0  iot_timer.o(i.iot_timer_update)
    i.ip_app_handler                         0x00023738   Section        0  main.o(i.ip_app_handler)
    ip_app_handler                           0x00023739   Thumb Code    96  main.o(i.ip_app_handler)
    i.iphc_decode                            0x000237a0   Section        0  ble_6lowpan.o(i.iphc_decode)
    iphc_decode                              0x000237a1   Thumb Code   972  ble_6lowpan.o(i.iphc_decode)
    i.iphc_encode                            0x00023b70   Section        0  ble_6lowpan.o(i.iphc_encode)
    iphc_encode                              0x00023b71   Thumb Code  1120  ble_6lowpan.o(i.iphc_encode)
    i.iphc_nhc_decode                        0x00023fd0   Section        0  ble_6lowpan.o(i.iphc_nhc_decode)
    iphc_nhc_decode                          0x00023fd1   Thumb Code   156  ble_6lowpan.o(i.iphc_nhc_decode)
    i.iphc_nhc_encode                        0x0002406c   Section        0  ble_6lowpan.o(i.iphc_nhc_encode)
    iphc_nhc_encode                          0x0002406d   Thumb Code   144  ble_6lowpan.o(i.iphc_nhc_encode)
    i.ipsp_evt_handler                       0x000240fc   Section        0  ble_6lowpan.o(i.ipsp_evt_handler)
    ipsp_evt_handler                         0x000240fd   Thumb Code   394  ble_6lowpan.o(i.ipsp_evt_handler)
    i.ipv6_address_find_best_match           0x00024290   Section        0  ipv6.o(i.ipv6_address_find_best_match)
    i.ipv6_address_remove                    0x0002436c   Section        0  ipv6.o(i.ipv6_address_remove)
    i.ipv6_address_set                       0x000243e0   Section        0  ipv6.o(i.ipv6_address_set)
    i.ipv6_checksum_calculate                0x00024400   Section        0  ipv6_utils.o(i.ipv6_checksum_calculate)
    i.ipv6_header_init                       0x0002445e   Section        0  ipv6_utils.o(i.ipv6_header_init)
    i.ipv6_init                              0x00024474   Section        0  ipv6.o(i.ipv6_init)
    i.ipv6_input                             0x000244e8   Section        0  ipv6.o(i.ipv6_input)
    ipv6_input                               0x000244e9   Thumb Code    92  ipv6.o(i.ipv6_input)
    i.ipv6_medium_connectable_mode_enter     0x00024548   Section        0  ipv6_medium_ble.o(i.ipv6_medium_connectable_mode_enter)
    i.ipv6_medium_connectable_mode_exit      0x0002458c   Section        0  ipv6_medium_ble.o(i.ipv6_medium_connectable_mode_exit)
    i.ipv6_medium_eui48_get                  0x000245ac   Section        0  ipv6_medium_ble.o(i.ipv6_medium_eui48_get)
    i.ipv6_medium_eui48_set                  0x000245d4   Section        0  ipv6_medium_ble.o(i.ipv6_medium_eui48_set)
    i.ipv6_medium_eui64_get                  0x00024604   Section        0  ipv6_medium_ble.o(i.ipv6_medium_eui64_get)
    i.ipv6_medium_init                       0x00024668   Section        0  ipv6_medium_ble.o(i.ipv6_medium_init)
    i.ipv6_send                              0x000246c4   Section        0  ipv6.o(i.ipv6_send)
    i.is_ack                                 0x000246fc   Section        0  coap.o(i.is_ack)
    is_ack                                   0x000246fd   Thumb Code    22  coap.o(i.is_ack)
    i.is_context_cover_iid                   0x00024712   Section        0  ble_6lowpan.o(i.is_context_cover_iid)
    is_context_cover_iid                     0x00024713   Thumb Code    72  ble_6lowpan.o(i.is_context_cover_iid)
    i.is_page_erase_required                 0x0002475c   Section        0  pstorage.o(i.is_page_erase_required)
    is_page_erase_required                   0x0002475d   Thumb Code    60  pstorage.o(i.is_page_erase_required)
    i.is_request                             0x000247a0   Section        0  coap.o(i.is_request)
    is_request                               0x000247a1   Thumb Code    14  coap.o(i.is_request)
    i.is_word_aligned                        0x000247ae   Section        0  pstorage.o(i.is_word_aligned)
    is_word_aligned                          0x000247af   Thumb Code    12  pstorage.o(i.is_word_aligned)
    i.joining_mode_adv_params_set            0x000247bc   Section        0  commissioning.o(i.joining_mode_adv_params_set)
    joining_mode_adv_params_set              0x000247bd   Thumb Code   120  commissioning.o(i.joining_mode_adv_params_set)
    i.joining_mode_gap_params_set            0x00024840   Section        0  commissioning.o(i.joining_mode_gap_params_set)
    joining_mode_gap_params_set              0x00024841   Thumb Code    62  commissioning.o(i.joining_mode_gap_params_set)
    i.joining_mode_timeout_handler           0x00024894   Section        0  commissioning.o(i.joining_mode_timeout_handler)
    i.le_role_encode                         0x000248c4   Section        0  ble_advdata.o(i.le_role_encode)
    le_role_encode                           0x000248c5   Thumb Code    84  ble_advdata.o(i.le_role_encode)
    i.led3_callback                          0x00024918   Section        0  main.o(i.led3_callback)
    led3_callback                            0x00024919   Thumb Code    10  main.o(i.led3_callback)
    i.led4_callback                          0x00024922   Section        0  main.o(i.led4_callback)
    led4_callback                            0x00024923   Thumb Code    10  main.o(i.led4_callback)
    i.led_value_get                          0x0002492c   Section        0  main.o(i.led_value_get)
    led_value_get                            0x0002492d   Thumb Code    96  main.o(i.led_value_get)
    i.list_deletions_handler                 0x00024998   Section        0  app_timer.o(i.list_deletions_handler)
    list_deletions_handler                   0x00024999   Thumb Code   178  app_timer.o(i.list_deletions_handler)
    i.list_insertions_handler                0x00024a54   Section        0  app_timer.o(i.list_insertions_handler)
    list_insertions_handler                  0x00024a55   Thumb Code   196  app_timer.o(i.list_insertions_handler)
    i.main                                   0x00024b20   Section        0  main.o(i.main)
    i.main_state_err_busy_process            0x00024cdc   Section        0  pstorage.o(i.main_state_err_busy_process)
    main_state_err_busy_process              0x00024cdd   Thumb Code    16  pstorage.o(i.main_state_err_busy_process)
    i.manuf_specific_data_encode             0x00024cf0   Section        0  ble_advdata.o(i.manuf_specific_data_encode)
    manuf_specific_data_encode               0x00024cf1   Thumb Code   100  ble_advdata.o(i.manuf_specific_data_encode)
    i.name_encode                            0x00024d54   Section        0  ble_advdata.o(i.name_encode)
    name_encode                              0x00024d55   Thumb Code   156  ble_advdata.o(i.name_encode)
    i.nrf_delay_ms                           0x00024df0   Section        0  nrf_delay.o(i.nrf_delay_ms)
    i.nrf_drv_common_irq_enable              0x00024e0a   Section        0  nrf_drv_common.o(i.nrf_drv_common_irq_enable)
    i.nrf_drv_gpiote_in_event_enable         0x00024e44   Section        0  nrf_drv_gpiote.o(i.nrf_drv_gpiote_in_event_enable)
    i.nrf_drv_gpiote_in_init                 0x00024ee8   Section        0  nrf_drv_gpiote.o(i.nrf_drv_gpiote_in_init)
    i.nrf_drv_gpiote_in_is_set               0x00024fa0   Section        0  nrf_drv_gpiote.o(i.nrf_drv_gpiote_in_is_set)
    i.nrf_drv_gpiote_init                    0x00024fb4   Section        0  nrf_drv_gpiote.o(i.nrf_drv_gpiote_init)
    i.nrf_drv_gpiote_is_init                 0x00025008   Section        0  nrf_drv_gpiote.o(i.nrf_drv_gpiote_is_init)
    i.nrf_free                               0x0002501c   Section        0  mem_manager.o(i.nrf_free)
    i.nrf_gpio_cfg                           0x0002505c   Section        0  nrf_drv_gpiote.o(i.nrf_gpio_cfg)
    nrf_gpio_cfg                             0x0002505d   Thumb Code    34  nrf_drv_gpiote.o(i.nrf_gpio_cfg)
    i.nrf_gpio_cfg_sense_set                 0x0002507e   Section        0  nrf_drv_gpiote.o(i.nrf_gpio_cfg_sense_set)
    nrf_gpio_cfg_sense_set                   0x0002507f   Thumb Code    28  nrf_drv_gpiote.o(i.nrf_gpio_cfg_sense_set)
    i.nrf_gpiote_event_clear                 0x0002509c   Section        0  nrf_drv_gpiote.o(i.nrf_gpiote_event_clear)
    nrf_gpiote_event_clear                   0x0002509d   Thumb Code    16  nrf_drv_gpiote.o(i.nrf_gpiote_event_clear)
    i.nrf_gpiote_event_is_set                0x000250b0   Section        0  nrf_drv_gpiote.o(i.nrf_gpiote_event_is_set)
    nrf_gpiote_event_is_set                  0x000250b1   Thumb Code    12  nrf_drv_gpiote.o(i.nrf_gpiote_event_is_set)
    i.nrf_mem_init                           0x000250c0   Section        0  mem_manager.o(i.nrf_mem_init)
    i.nrf_mem_reserve                        0x000250e0   Section        0  mem_manager.o(i.nrf_mem_reserve)
    i.nrf_uart_event_check                   0x00025194   Section        0  nrf_drv_uart.o(i.nrf_uart_event_check)
    nrf_uart_event_check                     0x00025195   Thumb Code    10  nrf_drv_uart.o(i.nrf_uart_event_check)
    i.nrf_uart_int_enable_check              0x0002519e   Section        0  nrf_drv_uart.o(i.nrf_uart_int_enable_check)
    nrf_uart_int_enable_check                0x0002519f   Thumb Code    12  nrf_drv_uart.o(i.nrf_uart_int_enable_check)
    i.nrf_uarte_event_check                  0x000251aa   Section        0  nrf_drv_uart.o(i.nrf_uarte_event_check)
    nrf_uarte_event_check                    0x000251ab   Thumb Code    10  nrf_drv_uart.o(i.nrf_uarte_event_check)
    i.on_ble_evt                             0x000251b4   Section        0  ipv6_medium_ble.o(i.on_ble_evt)
    on_ble_evt                               0x000251b5   Thumb Code   122  ipv6_medium_ble.o(i.on_ble_evt)
    i.on_ble_ncfgs_evt                       0x00025234   Section        0  commissioning.o(i.on_ble_ncfgs_evt)
    i.on_ipv6_medium_error                   0x000252f8   Section        0  main.o(i.on_ipv6_medium_error)
    on_ipv6_medium_error                     0x000252f9   Thumb Code     2  main.o(i.on_ipv6_medium_error)
    i.on_ipv6_medium_evt                     0x000252fc   Section        0  main.o(i.on_ipv6_medium_evt)
    on_ipv6_medium_evt                       0x000252fd   Thumb Code    20  main.o(i.on_ipv6_medium_evt)
    i.pbuffer_allocate                       0x00025314   Section        0  iot_pbuffer.o(i.pbuffer_allocate)
    pbuffer_allocate                         0x00025315   Thumb Code    76  iot_pbuffer.o(i.pbuffer_allocate)
    i.pbuffer_find                           0x00025364   Section        0  iot_pbuffer.o(i.pbuffer_find)
    pbuffer_find                             0x00025365   Thumb Code    34  iot_pbuffer.o(i.pbuffer_find)
    i.pbuffer_init                           0x0002538c   Section        0  iot_pbuffer.o(i.pbuffer_init)
    pbuffer_init                             0x0002538d   Thumb Code    14  iot_pbuffer.o(i.pbuffer_init)
    i.pin_in_use_by_port                     0x0002539c   Section        0  nrf_drv_gpiote.o(i.pin_in_use_by_port)
    pin_in_use_by_port                       0x0002539d   Thumb Code    20  nrf_drv_gpiote.o(i.pin_in_use_by_port)
    i.pin_in_use_by_te                       0x000253b4   Section        0  nrf_drv_gpiote.o(i.pin_in_use_by_te)
    pin_in_use_by_te                         0x000253b5   Thumb Code    20  nrf_drv_gpiote.o(i.pin_in_use_by_te)
    i.port_data_callback                     0x000253cc   Section        0  coap_transport_ipv6.o(i.port_data_callback)
    port_data_callback                       0x000253cd   Thumb Code    68  coap_transport_ipv6.o(i.port_data_callback)
    i.print_node_settings                    0x00025414   Section        0  commissioning.o(i.print_node_settings)
    print_node_settings                      0x00025415   Thumb Code    50  commissioning.o(i.print_node_settings)
    i.pstorage_cb_handler                    0x0002544c   Section        0  commissioning.o(i.pstorage_cb_handler)
    pstorage_cb_handler                      0x0002544d   Thumb Code     2  commissioning.o(i.pstorage_cb_handler)
    i.pstorage_clear                         0x00025450   Section        0  pstorage.o(i.pstorage_clear)
    i.pstorage_flash_page_size               0x000254ec   Section        0  pstorage.o(i.pstorage_flash_page_size)
    pstorage_flash_page_size                 0x000254ed   Thumb Code    10  pstorage.o(i.pstorage_flash_page_size)
    i.pstorage_init                          0x000254f8   Section        0  pstorage.o(i.pstorage_init)
    i.pstorage_load                          0x0002555c   Section        0  pstorage.o(i.pstorage_load)
    i.pstorage_register                      0x00025604   Section        0  pstorage.o(i.pstorage_register)
    i.pstorage_sys_event_handler             0x000256b8   Section        0  pstorage.o(i.pstorage_sys_event_handler)
    i.pstorage_update                        0x00025700   Section        0  pstorage.o(i.pstorage_update)
    i.ra_input                               0x00025788   Section        0  icmp6.o(i.ra_input)
    ra_input                                 0x00025789   Thumb Code   310  icmp6.o(i.ra_input)
    i.read_node_settings                     0x000258c0   Section        0  commissioning.o(i.read_node_settings)
    read_node_settings                       0x000258c1   Thumb Code   116  commissioning.o(i.read_node_settings)
    i.rtc1_stop                              0x0002593c   Section        0  app_timer.o(i.rtc1_stop)
    rtc1_stop                                0x0002593d   Thumb Code    52  app_timer.o(i.rtc1_stop)
    i.rx_byte                                0x00025978   Section        0  nrf_drv_uart.o(i.rx_byte)
    rx_byte                                  0x00025979   Thumb Code    28  nrf_drv_uart.o(i.rx_byte)
    i.rx_done_event                          0x0002599c   Section        0  nrf_drv_uart.o(i.rx_done_event)
    rx_done_event                            0x0002599d   Thumb Code    32  nrf_drv_uart.o(i.rx_done_event)
    i.send_error_response                    0x000259c0   Section        0  coap.o(i.send_error_response)
    send_error_response                      0x000259c1   Thumb Code    66  coap.o(i.send_error_response)
    i.service_data_encode                    0x00025a04   Section        0  ble_advdata.o(i.service_data_encode)
    service_data_encode                      0x00025a05   Thumb Code   136  ble_advdata.o(i.service_data_encode)
    i.sm_state_change                        0x00025a8c   Section        0  pstorage.o(i.sm_state_change)
    sm_state_change                          0x00025a8d   Thumb Code    52  pstorage.o(i.sm_state_change)
    i.softdevice_assertion_handler           0x00025ac8   Section        0  softdevice_handler.o(i.softdevice_assertion_handler)
    i.softdevice_ble_evt_handler_set         0x00025ad4   Section        0  softdevice_handler.o(i.softdevice_ble_evt_handler_set)
    i.softdevice_handler_init                0x00025ae8   Section        0  softdevice_handler.o(i.softdevice_handler_init)
    i.softdevice_sys_evt_handler_set         0x00025b18   Section        0  softdevice_handler.o(i.softdevice_sys_evt_handler_set)
    i.state_data_erase_swap_entry_run        0x00025b2c   Section        0  pstorage.o(i.state_data_erase_swap_entry_run)
    state_data_erase_swap_entry_run          0x00025b2d   Thumb Code    96  pstorage.o(i.state_data_erase_swap_entry_run)
    i.state_erase_data_page_entry_run        0x00025b94   Section        0  pstorage.o(i.state_erase_data_page_entry_run)
    state_erase_data_page_entry_run          0x00025b95   Thumb Code     8  pstorage.o(i.state_erase_data_page_entry_run)
    i.state_restore_head_entry_run           0x00025ba0   Section        0  pstorage.o(i.state_restore_head_entry_run)
    state_restore_head_entry_run             0x00025ba1   Thumb Code    42  pstorage.o(i.state_restore_head_entry_run)
    i.state_restore_tail_entry_run           0x00025bd0   Section        0  pstorage.o(i.state_restore_tail_entry_run)
    state_restore_tail_entry_run             0x00025bd1   Thumb Code    72  pstorage.o(i.state_restore_tail_entry_run)
    i.state_swap_erase_entry_run             0x00025c20   Section        0  pstorage.o(i.state_swap_erase_entry_run)
    state_swap_erase_entry_run               0x00025c21   Thumb Code    34  pstorage.o(i.state_swap_erase_entry_run)
    i.state_write_data_swap_entry_run        0x00025c44   Section        0  pstorage.o(i.state_write_data_swap_entry_run)
    state_write_data_swap_entry_run          0x00025c45   Thumb Code    46  pstorage.o(i.state_write_data_swap_entry_run)
    i.store_cmd_flash_write_execute          0x00025c78   Section        0  pstorage.o(i.store_cmd_flash_write_execute)
    store_cmd_flash_write_execute            0x00025c79   Thumb Code    84  pstorage.o(i.store_cmd_flash_write_execute)
    i.swap_erase_state_run                   0x00025cd4   Section        0  pstorage.o(i.swap_erase_state_run)
    swap_erase_state_run                     0x00025cd5   Thumb Code    18  pstorage.o(i.swap_erase_state_run)
    i.swap_sub_state_err_busy_process        0x00025cec   Section        0  pstorage.o(i.swap_sub_state_err_busy_process)
    swap_sub_state_err_busy_process          0x00025ced   Thumb Code    16  pstorage.o(i.swap_sub_state_err_busy_process)
    i.swap_sub_state_state_change            0x00025d00   Section        0  pstorage.o(i.swap_sub_state_state_change)
    swap_sub_state_state_change              0x00025d01   Thumb Code    12  pstorage.o(i.swap_sub_state_state_change)
    i.sys_evt_dispatch                       0x00025d14   Section        0  ipv6_medium_ble.o(i.sys_evt_dispatch)
    sys_evt_dispatch                         0x00025d15   Thumb Code     4  ipv6_medium_ble.o(i.sys_evt_dispatch)
    i.tail_restore_state_run                 0x00025d18   Section        0  pstorage.o(i.tail_restore_state_run)
    tail_restore_state_run                   0x00025d19   Thumb Code    16  pstorage.o(i.tail_restore_state_run)
    i.timer_list_handler                     0x00025d2c   Section        0  app_timer.o(i.timer_list_handler)
    timer_list_handler                       0x00025d2d   Thumb Code   134  app_timer.o(i.timer_list_handler)
    i.timer_list_insert                      0x00025db8   Section        0  app_timer.o(i.timer_list_insert)
    timer_list_insert                        0x00025db9   Thumb Code    56  app_timer.o(i.timer_list_insert)
    i.timer_timeouts_check                   0x00025df4   Section        0  app_timer.o(i.timer_timeouts_check)
    timer_timeouts_check                     0x00025df5   Thumb Code   128  app_timer.o(i.timer_timeouts_check)
    i.tx_byte                                0x00025e7c   Section        0  nrf_drv_uart.o(i.tx_byte)
    tx_byte                                  0x00025e7d   Thumb Code    28  nrf_drv_uart.o(i.tx_byte)
    i.tx_complete                            0x00025ea0   Section        0  ble_6lowpan.o(i.tx_complete)
    tx_complete                              0x00025ea1   Thumb Code    28  ble_6lowpan.o(i.tx_complete)
    i.tx_done_event                          0x00025ebc   Section        0  nrf_drv_uart.o(i.tx_done_event)
    tx_done_event                            0x00025ebd   Thumb Code    30  nrf_drv_uart.o(i.tx_done_event)
    i.tx_send                                0x00025ee0   Section        0  ble_6lowpan.o(i.tx_send)
    tx_send                                  0x00025ee1   Thumb Code    84  ble_6lowpan.o(i.tx_send)
    i.type_offset_get                        0x00025f38   Section        0  iot_pbuffer.o(i.type_offset_get)
    type_offset_get                          0x00025f39   Thumb Code    34  iot_pbuffer.o(i.type_offset_get)
    i.udp6_socket_allocate                   0x00025f5c   Section        0  udp6.o(i.udp6_socket_allocate)
    i.udp6_socket_app_data_set               0x00025fa8   Section        0  udp6.o(i.udp6_socket_app_data_set)
    i.udp6_socket_bind                       0x00025fe8   Section        0  udp6.o(i.udp6_socket_bind)
    i.udp6_socket_free                       0x0002606c   Section        0  udp6.o(i.udp6_socket_free)
    i.udp6_socket_recv                       0x000260ac   Section        0  udp6.o(i.udp6_socket_recv)
    i.udp6_socket_sendto                     0x000260f8   Section        0  udp6.o(i.udp6_socket_sendto)
    i.udp_init                               0x00026240   Section        0  udp6.o(i.udp_init)
    i.udp_input                              0x00026270   Section        0  udp6.o(i.udp_input)
    i.udp_socket_init                        0x000263dc   Section        0  udp6.o(i.udp_socket_init)
    udp_socket_init                          0x000263dd   Thumb Code    28  udp6.o(i.udp_socket_init)
    i.uint16_encode                          0x000263f8   Section        0  ble_advdata.o(i.uint16_encode)
    uint16_encode                            0x000263f9   Thumb Code    10  ble_advdata.o(i.uint16_encode)
    i.user_id_get                            0x00026404   Section        0  app_timer.o(i.user_id_get)
    user_id_get                              0x00026405   Thumb Code    62  app_timer.o(i.user_id_get)
    i.user_op_alloc                          0x00026448   Section        0  app_timer.o(i.user_op_alloc)
    user_op_alloc                            0x00026449   Thumb Code    40  app_timer.o(i.user_op_alloc)
    i.uuid_list_encode                       0x00026470   Section        0  ble_advdata.o(i.uuid_list_encode)
    uuid_list_encode                         0x00026471   Thumb Code    48  ble_advdata.o(i.uuid_list_encode)
    i.uuid_list_sized_encode                 0x000264a0   Section        0  ble_advdata.o(i.uuid_list_sized_encode)
    uuid_list_sized_encode                   0x000264a1   Thumb Code   158  ble_advdata.o(i.uuid_list_sized_encode)
    i.well_known_core_callback               0x00026540   Section        0  main.o(i.well_known_core_callback)
    .constdata                               0x0002661c   Section       52  main.o(.constdata)
    m_iot_timer_tick_src_id                  0x00026620   Data           4  main.o(.constdata)
    m_led3_name                              0x00026624   Data           5  main.o(.constdata)
    m_led4_name                              0x00026629   Data           5  main.o(.constdata)
    m_lights_name                            0x0002662e   Data           7  main.o(.constdata)
    iot_timer_clients                        0x00026638   Data           8  main.o(.constdata)
    local_routers_multicast_addr             0x00026640   Data          16  main.o(.constdata)
    .constdata                               0x00026650   Section       24  main.o(.constdata)
    list_of_clients                          0x00026650   Data          24  main.o(.constdata)
    .constdata                               0x00026668   Section       40  pstorage.o(.constdata)
    swap_sub_state_sm_lut                    0x00026668   Data          20  pstorage.o(.constdata)
    swap_sub_state_sm_lut                    0x0002667c   Data          20  pstorage.o(.constdata)
    .constdata                               0x00026690   Section       16  ble_ncfgs.o(.constdata)
    .constdata                               0x000266a0   Section        8  app_button.o(.constdata)
    m_detection_delay_timer_id               0x000266a0   Data           4  app_button.o(.constdata)
    .constdata                               0x000266a8   Section      112  mem_manager.o(.constdata)
    m_block_size                             0x000266a8   Data          28  mem_manager.o(.constdata)
    m_block_start                            0x000266c4   Data          28  mem_manager.o(.constdata)
    m_block_end                              0x000266e0   Data          28  mem_manager.o(.constdata)
    m_block_mem_start                        0x000266fc   Data          28  mem_manager.o(.constdata)
    .constdata                               0x00026718   Section        8  ble_6lowpan.o(.constdata)
    m_link_local_prefix                      0x00026718   Data           2  ble_6lowpan.o(.constdata)
    m_link_local_16_middle                   0x0002671a   Data           2  ble_6lowpan.o(.constdata)
    m_hop_limit                              0x0002671c   Data           4  ble_6lowpan.o(.constdata)
    .data                                    0x20002800   Section       98  main.o(.data)
    m_display_state                          0x20002800   Data           1  main.o(.data)
    m_power_off_on_failure                   0x20002801   Data           1  main.o(.data)
    id_mode_previously_enabled               0x20002802   Data           1  main.o(.data)
    m_identity_mode_active                   0x20002803   Data           1  main.o(.data)
    s_line_num                               0x20002804   Data           2  main.o(.data)
    response_str                             0x20002806   Data           2  main.o(.data)
    s_error_code                             0x20002808   Data           4  main.o(.data)
    buttons                                  0x2000280c   Data           8  main.o(.data)
    m_ipv6_medium                            0x20002814   Data           8  main.o(.data)
    response_str_led3_true                   0x20002824   Data          15  main.o(.data)
    response_str_led3_false                  0x20002833   Data          16  main.o(.data)
    response_str_led4_true                   0x20002843   Data          15  main.o(.data)
    response_str_led4_false                  0x20002852   Data          16  main.o(.data)
    .data                                    0x20002864   Section       36  pstorage.o(.data)
    m_state                                  0x20002864   Data           1  pstorage.o(.data)
    m_swap_sub_state                         0x20002865   Data           1  pstorage.o(.data)
    m_next_app_instance                      0x20002866   Data           2  pstorage.o(.data)
    m_flags                                  0x20002868   Data           4  pstorage.o(.data)
    m_next_page_addr                         0x2000286c   Data           4  pstorage.o(.data)
    m_head_word_size                         0x20002870   Data           4  pstorage.o(.data)
    m_tail_word_size                         0x20002874   Data           4  pstorage.o(.data)
    m_current_page_id                        0x20002878   Data           4  pstorage.o(.data)
    m_num_of_command_retries                 0x2000287c   Data           4  pstorage.o(.data)
    m_num_of_bytes_written                   0x20002880   Data           4  pstorage.o(.data)
    m_app_data_size                          0x20002884   Data           4  pstorage.o(.data)
    .data                                    0x20002888   Section      144  coap.o(.data)
    m_request_handler                        0x20002888   Data           4  coap.o(.data)
    m_token_seed                             0x2000288c   Data           4  coap.o(.data)
    m_message_id_counter                     0x20002890   Data           4  coap.o(.data)
    m_error_callback                         0x20002894   Data           4  coap.o(.data)
    m_coap_empty_message                     0x20002898   Data         128  coap.o(.data)
    .data                                    0x20002918   Section        1  coap_queue.o(.data)
    m_message_queue_count                    0x20002918   Data           1  coap_queue.o(.data)
    .data                                    0x2000291c   Section        4  coap_resource.o(.data)
    mp_root_resource                         0x2000291c   Data           4  coap_resource.o(.data)
    .data                                    0x20002920   Section        8  coap_transport_ipv6.o(.data)
    m_port_table                             0x20002920   Data           8  coap_transport_ipv6.o(.data)
    .data                                    0x20002928   Section        8  icmp6.o(.data)
    m_initialization_state                   0x20002928   Data           1  icmp6.o(.data)
    m_sequence_number                        0x2000292a   Data           2  icmp6.o(.data)
    m_event_handler                          0x2000292c   Data           4  icmp6.o(.data)
    .data                                    0x20002930   Section        1  iot_context_manager.o(.data)
    m_initialization_state                   0x20002930   Data           1  iot_context_manager.o(.data)
    .data                                    0x20002931   Section        1  iot_pbuffer.o(.data)
    m_initialization_state                   0x20002931   Data           1  iot_pbuffer.o(.data)
    .data                                    0x20002934   Section        8  iot_timer.o(.data)
    m_wall_clock                             0x20002934   Data           4  iot_timer.o(.data)
    m_clients                                0x20002938   Data           4  iot_timer.o(.data)
    .data                                    0x2000293c   Section       16  ipv6.o(.data)
    m_event_handler                          0x2000293c   Data           4  ipv6.o(.data)
    m_interfaces_count                       0x20002940   Data           4  ipv6.o(.data)
    m_interfaces                             0x20002944   Data           8  ipv6.o(.data)
    .data                                    0x2000294c   Section       43  ipv6_medium_ble.o(.data)
    m_connectable_mode_active                0x2000294c   Data           1  ipv6_medium_ble.o(.data)
    m_adv_params_applied                     0x2000294d   Data           1  ipv6_medium_ble.o(.data)
    m_conn_handle                            0x2000294e   Data           2  ipv6_medium_ble.o(.data)
    m_module_instance_id                     0x20002950   Data           4  ipv6_medium_ble.o(.data)
    m_ipv6_medium_evt_handler                0x20002954   Data           4  ipv6_medium_ble.o(.data)
    m_ipv6_medium_error_handler              0x20002958   Data           4  ipv6_medium_ble.o(.data)
    m_evt_schedule_func                      0x2000295c   Data           4  ipv6_medium_ble.o(.data)
    m_p_node_gap_params                      0x20002960   Data           4  ipv6_medium_ble.o(.data)
    m_p_node_adv_params                      0x20002964   Data           4  ipv6_medium_ble.o(.data)
    m_commissioning_id_mode_cb               0x20002968   Data           4  ipv6_medium_ble.o(.data)
    m_commissioning_power_off_cb             0x2000296c   Data           4  ipv6_medium_ble.o(.data)
    m_local_ble_addr                         0x20002970   Data           7  ipv6_medium_ble.o(.data)
    .data                                    0x20002977   Section        1  udp6.o(.data)
    m_initialization_state                   0x20002977   Data           1  udp6.o(.data)
    .data                                    0x20002978   Section        8  ble_ncfgs.o(.data)
    m_service_state                          0x20002978   Data           1  ble_ncfgs.o(.data)
    m_app_evt_handler                        0x2000297c   Data           4  ble_ncfgs.o(.data)
    .data                                    0x20002980   Section       28  commissioning.o(.data)
    m_power_off_on_failure                   0x20002980   Data           1  commissioning.o(.data)
    m_current_mode                           0x20002981   Data           1  commissioning.o(.data)
    m_next_mode                              0x20002982   Data           1  commissioning.o(.data)
    m_settings_block_size                    0x20002983   Data           1  commissioning.o(.data)
    m_conn_handle                            0x20002984   Data           2  commissioning.o(.data)
    m_config_mode_adv_uuids                  0x20002986   Data           4  commissioning.o(.data)
    m_joining_mode_adv_uuids                 0x2000298a   Data           4  commissioning.o(.data)
    m_commissioning_evt_handler              0x20002990   Data           4  commissioning.o(.data)
    m_settings_storage_handle                0x20002994   Data           8  commissioning.o(.data)
    .data                                    0x2000299c   Section       20  app_button.o(.data)
    m_button_count                           0x2000299c   Data           1  app_button.o(.data)
    mp_buttons                               0x200029a0   Data           4  app_button.o(.data)
    m_detection_delay                        0x200029a4   Data           4  app_button.o(.data)
    m_pin_state                              0x200029a8   Data           4  app_button.o(.data)
    m_pin_transition                         0x200029ac   Data           4  app_button.o(.data)
    .data                                    0x200029b0   Section       32  app_timer.o(.data)
    m_user_array_size                        0x200029b0   Data           1  app_timer.o(.data)
    m_ticks_elapsed_q_read_ind               0x200029b1   Data           1  app_timer.o(.data)
    m_ticks_elapsed_q_write_ind              0x200029b2   Data           1  app_timer.o(.data)
    m_rtc1_running                           0x200029b3   Data           1  app_timer.o(.data)
    m_rtc1_reset                             0x200029b4   Data           1  app_timer.o(.data)
    mp_users                                 0x200029b8   Data           4  app_timer.o(.data)
    mp_timer_id_head                         0x200029bc   Data           4  app_timer.o(.data)
    m_ticks_latest                           0x200029c0   Data           4  app_timer.o(.data)
    m_evt_schedule_func                      0x200029c4   Data           4  app_timer.o(.data)
    m_ticks_elapsed                          0x200029c8   Data           8  app_timer.o(.data)
    .data                                    0x200029d0   Section        8  mem_manager.o(.data)
    m_module_initialized                     0x200029d0   Data           1  mem_manager.o(.data)
    m_mem_pool                               0x200029d4   Data           4  mem_manager.o(.data)
    .data                                    0x200029d8   Section       20  softdevice_handler.o(.data)
    m_softdevice_enabled                     0x200029d8   Data           1  softdevice_handler.o(.data)
    m_ble_evt_buffer_size                    0x200029da   Data           2  softdevice_handler.o(.data)
    m_evt_schedule_func                      0x200029dc   Data           4  softdevice_handler.o(.data)
    mp_ble_evt_buffer                        0x200029e0   Data           4  softdevice_handler.o(.data)
    m_ble_evt_handler                        0x200029e4   Data           4  softdevice_handler.o(.data)
    m_sys_evt_handler                        0x200029e8   Data           4  softdevice_handler.o(.data)
    .data                                    0x200029ec   Section        4  system_nrf52.o(.data)
    __tagsym$$used                           0x200029ec   Number         0  system_nrf52.o(.data)
    .data                                    0x200029f0   Section       12  ble_6lowpan.o(.data)
    m_event_handler                          0x200029f0   Data           4  ble_6lowpan.o(.data)
    m_ll_addr                                0x200029f4   Data           8  ble_6lowpan.o(.data)
    .data                                    0x200029fc   Section        4  ble_ipsp.o(.data)
    m_evt_handler                            0x200029fc   Data           4  ble_ipsp.o(.data)
    .bss                                     0x20002a00   Section       32  main.o(.bss)
    m_iot_timer_tick_src_id_data             0x20002a00   Data          32  main.o(.bss)
    .bss                                     0x20002a20   Section     1304  main.o(.bss)
    s_file_name                              0x20002a20   Data         128  main.o(.bss)
    APP_TIMER_BUF                            0x20002aa0   Data         744  main.o(.bss)
    root                                     0x20002d88   Data          52  main.o(.bss)
    well_known                               0x20002dbc   Data          52  main.o(.bss)
    core                                     0x20002df0   Data          52  main.o(.bss)
    lights                                   0x20002e24   Data          52  main.o(.bss)
    led3                                     0x20002e58   Data          52  main.o(.bss)
    led4                                     0x20002e8c   Data          52  main.o(.bss)
    ipv6_medium_init_params                  0x20002ec0   Data          20  main.o(.bss)
    m_well_known_core                        0x20002ed4   Data         100  main.o(.bss)
    .bss                                     0x20002f38   Section       88  nrf_drv_gpiote.o(.bss)
    m_cb                                     0x20002f38   Data          88  nrf_drv_gpiote.o(.bss)
    .bss                                     0x20002f90   Section       24  nrf_drv_uart.o(.bss)
    m_cb                                     0x20002f90   Data          24  nrf_drv_uart.o(.bss)
    .bss                                     0x20002fa8   Section      628  pstorage.o(.bss)
    m_cmd_queue                              0x20002fa8   Data         604  pstorage.o(.bss)
    m_app_table                              0x20003204   Data          24  pstorage.o(.bss)
    .bss                                     0x2000321c   Section      240  coap_queue.o(.bss)
    m_queue                                  0x2000321c   Data         240  coap_queue.o(.bss)
    .bss                                     0x2000330c   Section      106  coap_resource.o(.bss)
    m_scratch_buffer                         0x2000330c   Data         106  coap_resource.o(.bss)
    .bss                                     0x20003378   Section      392  iot_context_manager.o(.bss)
    m_context_table                          0x20003378   Data         392  iot_context_manager.o(.bss)
    .bss                                     0x20003500   Section      200  iot_pbuffer.o(.bss)
    m_pbuffer                                0x20003500   Data         200  iot_pbuffer.o(.bss)
    .bss                                     0x200035c8   Section       76  ipv6.o(.bss)
    m_address_table                          0x200035c8   Data          60  ipv6.o(.bss)
    .bss                                     0x20003614   Section       72  ipv6_medium_ble.o(.bss)
    BLE_EVT_BUFFER                           0x20003614   Data          72  ipv6_medium_ble.o(.bss)
    .bss                                     0x2000365c   Section      132  udp6.o(.bss)
    m_socket                                 0x2000365c   Data         132  udp6.o(.bss)
    .bss                                     0x200036e0   Section       97  ble_ncfgs.o(.bss)
    m_database                               0x200036e0   Data          26  ble_ncfgs.o(.bss)
    m_ctrlp_value_buffer                     0x200036fa   Data          18  ble_ncfgs.o(.bss)
    m_ncfgs_data                             0x2000370c   Data          53  ble_ncfgs.o(.bss)
    .bss                                     0x20003748   Section      472  commissioning.o(.bss)
    m_node_settings                          0x20003748   Data          64  commissioning.o(.bss)
    m_commissioning_timers                   0x20003788   Data          48  commissioning.o(.bss)
    m_config_mode_gap_params                 0x200037b8   Data          20  commissioning.o(.bss)
    m_config_mode_adv_params                 0x200037cc   Data         160  commissioning.o(.bss)
    m_joining_mode_gap_params                0x2000386c   Data          20  commissioning.o(.bss)
    m_joining_mode_adv_params                0x20003880   Data         160  commissioning.o(.bss)
    .bss                                     0x20003920   Section       32  app_button.o(.bss)
    m_detection_delay_timer_id_data          0x20003920   Data          32  app_button.o(.bss)
    .bss                                     0x20003940   Section     4096  mem_manager.o(.bss)
    m_memory                                 0x20003940   Data        4096  mem_manager.o(.bss)
    .bss                                     0x20004940   Section      236  ble_6lowpan.o(.bss)
    m_instances                              0x20004940   Data         236  ble_6lowpan.o(.bss)
    .bss                                     0x20004a2c   Section     5132  ble_ipsp.o(.bss)
    m_channel                                0x20004a2c   Data          12  ble_ipsp.o(.bss)
    m_rx_buffer                              0x20004a38   Data        5120  ble_ipsp.o(.bss)
    STACK                                    0x20005e38   Section     8192  arm_startup_nrf52.o(STACK)

    Global Symbols

    Symbol Name                              Value     Ov Type        Size  Object(Section)

    BuildAttributes$$THM_ISAv4$E$P$D$K$B$S$7EM$VFPi3$EXTD16$VFPS$VFMA$PE$A:L22UL41UL21$X:L11$S22US41US21$IEEE1$IW$USESV6$~STKCKD$USESV7$~SHL$OSPACE$ROPI$EBA8$MICROLIB$REQ8$PRES8$EABIv2 0x00000000   Number         0  anon$$obj.o ABSOLUTE
    __ARM_use_no_argv                        0x00000000   Number         0  main.o ABSOLUTE
    _printf_a                                0x00000000   Number         0  stubs.o ABSOLUTE
    _printf_c                                0x00000000   Number         0  stubs.o ABSOLUTE
    _printf_charcount                        0x00000000   Number         0  stubs.o ABSOLUTE
    _printf_d                                0x00000000   Number         0  stubs.o ABSOLUTE
    _printf_e                                0x00000000   Number         0  stubs.o ABSOLUTE
    _printf_f                                0x00000000   Number         0  stubs.o ABSOLUTE
    _printf_flags                            0x00000000   Number         0  stubs.o ABSOLUTE
    _printf_fp_dec                           0x00000000   Number         0  stubs.o ABSOLUTE
    _printf_fp_hex                           0x00000000   Number         0  stubs.o ABSOLUTE
    _printf_g                                0x00000000   Number         0  stubs.o ABSOLUTE
    _printf_i                                0x00000000   Number         0  stubs.o ABSOLUTE
    _printf_int_dec                          0x00000000   Number         0  stubs.o ABSOLUTE
    _printf_l                                0x00000000   Number         0  stubs.o ABSOLUTE
    _printf_lc                               0x00000000   Number         0  stubs.o ABSOLUTE
    _printf_ll                               0x00000000   Number         0  stubs.o ABSOLUTE
    _printf_lld                              0x00000000   Number         0  stubs.o ABSOLUTE
    _printf_lli                              0x00000000   Number         0  stubs.o ABSOLUTE
    _printf_llo                              0x00000000   Number         0  stubs.o ABSOLUTE
    _printf_llu                              0x00000000   Number         0  stubs.o ABSOLUTE
    _printf_llx                              0x00000000   Number         0  stubs.o ABSOLUTE
    _printf_longlong_dec                     0x00000000   Number         0  stubs.o ABSOLUTE
    _printf_longlong_hex                     0x00000000   Number         0  stubs.o ABSOLUTE
    _printf_longlong_oct                     0x00000000   Number         0  stubs.o ABSOLUTE
    _printf_ls                               0x00000000   Number         0  stubs.o ABSOLUTE
    _printf_mbtowc                           0x00000000   Number         0  stubs.o ABSOLUTE
    _printf_n                                0x00000000   Number         0  stubs.o ABSOLUTE
    _printf_o                                0x00000000   Number         0  stubs.o ABSOLUTE
    _printf_p                                0x00000000   Number         0  stubs.o ABSOLUTE
    _printf_percent                          0x00000000   Number         0  stubs.o ABSOLUTE
    _printf_pre_padding                      0x00000000   Number         0  stubs.o ABSOLUTE
    _printf_return_value                     0x00000000   Number         0  stubs.o ABSOLUTE
    _printf_s                                0x00000000   Number         0  stubs.o ABSOLUTE
    _printf_sizespec                         0x00000000   Number         0  stubs.o ABSOLUTE
    _printf_str                              0x00000000   Number         0  stubs.o ABSOLUTE
    _printf_truncate_signed                  0x00000000   Number         0  stubs.o ABSOLUTE
    _printf_truncate_unsigned                0x00000000   Number         0  stubs.o ABSOLUTE
    _printf_u                                0x00000000   Number         0  stubs.o ABSOLUTE
    _printf_wc                               0x00000000   Number         0  stubs.o ABSOLUTE
    _printf_wctomb                           0x00000000   Number         0  stubs.o ABSOLUTE
    _printf_widthprec                        0x00000000   Number         0  stubs.o ABSOLUTE
    _printf_x                                0x00000000   Number         0  stubs.o ABSOLUTE
    __cpp_initialize__aeabi_                  - Undefined Weak Reference
    __cxa_finalize                            - Undefined Weak Reference
    _clock_init                               - Undefined Weak Reference
    _microlib_exit                            - Undefined Weak Reference
    _scanf_longlong                           - Undefined Weak Reference
    _scanf_real                               - Undefined Weak Reference
    _scanf_string                             - Undefined Weak Reference
    __Vectors_Size                           0x00000400   Number         0  arm_startup_nrf52.o ABSOLUTE
    __Vectors                                0x0001f000   Data           4  arm_startup_nrf52.o(RESET)
    __Vectors_End                            0x0001f400   Data           0  arm_startup_nrf52.o(RESET)
    __main                                   0x0001f401   Thumb Code     0  entry.o(.ARM.Collect$$$$00000000)
    _main_stk                                0x0001f401   Thumb Code     0  entry2.o(.ARM.Collect$$$$00000001)
    _main_scatterload                        0x0001f405   Thumb Code     0  entry5.o(.ARM.Collect$$$$00000004)
    __main_after_scatterload                 0x0001f409   Thumb Code     0  entry5.o(.ARM.Collect$$$$00000004)
    _main_clock                              0x0001f409   Thumb Code     0  entry7b.o(.ARM.Collect$$$$00000008)
    _main_cpp_init                           0x0001f409   Thumb Code     0  entry8b.o(.ARM.Collect$$$$0000000A)
    _main_init                               0x0001f409   Thumb Code     0  entry9a.o(.ARM.Collect$$$$0000000B)
    __rt_final_cpp                           0x0001f411   Thumb Code     0  entry10a.o(.ARM.Collect$$$$0000000D)
    __rt_final_exit                          0x0001f411   Thumb Code     0  entry11a.o(.ARM.Collect$$$$0000000F)
    __asm___11_nrf_delay_c_532987f3__nrf_delay_us 0x0001f415   Thumb Code   118  nrf_delay.o(.emb_text)
    __asm___11_app_timer_c_cd27f9c3__nrf_delay_us 0x0001f48d   Thumb Code   118  app_timer.o(.emb_text)
    Reset_Handler                            0x0001f505   Thumb Code     8  arm_startup_nrf52.o(.text)
    NMI_Handler                              0x0001f50d   Thumb Code     2  arm_startup_nrf52.o(.text)
    HardFault_Handler                        0x0001f50f   Thumb Code     2  arm_startup_nrf52.o(.text)
    MemoryManagement_Handler                 0x0001f511   Thumb Code     2  arm_startup_nrf52.o(.text)
    BusFault_Handler                         0x0001f513   Thumb Code     2  arm_startup_nrf52.o(.text)
    UsageFault_Handler                       0x0001f515   Thumb Code     2  arm_startup_nrf52.o(.text)
    SVC_Handler                              0x0001f517   Thumb Code     2  arm_startup_nrf52.o(.text)
    PendSV_Handler                           0x0001f519   Thumb Code     2  arm_startup_nrf52.o(.text)
    SysTick_Handler                          0x0001f51b   Thumb Code     2  arm_startup_nrf52.o(.text)
    CCM_AAR_IRQHandler                       0x0001f51d   Thumb Code     0  arm_startup_nrf52.o(.text)
    COMP_LPCOMP_IRQHandler                   0x0001f51d   Thumb Code     0  arm_startup_nrf52.o(.text)
    ECB_IRQHandler                           0x0001f51d   Thumb Code     0  arm_startup_nrf52.o(.text)
    I2S_IRQHandler                           0x0001f51d   Thumb Code     0  arm_startup_nrf52.o(.text)
    MWU_IRQHandler                           0x0001f51d   Thumb Code     0  arm_startup_nrf52.o(.text)
    NFCT_IRQHandler                          0x0001f51d   Thumb Code     0  arm_startup_nrf52.o(.text)
    PDM_IRQHandler                           0x0001f51d   Thumb Code     0  arm_startup_nrf52.o(.text)
    POWER_CLOCK_IRQHandler                   0x0001f51d   Thumb Code     0  arm_startup_nrf52.o(.text)
    PWM0_IRQHandler                          0x0001f51d   Thumb Code     0  arm_startup_nrf52.o(.text)
    PWM1_IRQHandler                          0x0001f51d   Thumb Code     0  arm_startup_nrf52.o(.text)
    PWM2_IRQHandler                          0x0001f51d   Thumb Code     0  arm_startup_nrf52.o(.text)
    QDEC_IRQHandler                          0x0001f51d   Thumb Code     0  arm_startup_nrf52.o(.text)
    RADIO_IRQHandler                         0x0001f51d   Thumb Code     0  arm_startup_nrf52.o(.text)
    RNG_IRQHandler                           0x0001f51d   Thumb Code     0  arm_startup_nrf52.o(.text)
    RTC0_IRQHandler                          0x0001f51d   Thumb Code     0  arm_startup_nrf52.o(.text)
    RTC2_IRQHandler                          0x0001f51d   Thumb Code     0  arm_startup_nrf52.o(.text)
    SAADC_IRQHandler                         0x0001f51d   Thumb Code     0  arm_startup_nrf52.o(.text)
    SPIM0_SPIS0_TWIM0_TWIS0_SPI0_TWI0_IRQHandler 0x0001f51d   Thumb Code     0  arm_startup_nrf52.o(.text)
    SPIM1_SPIS1_TWIM1_TWIS1_SPI1_TWI1_IRQHandler 0x0001f51d   Thumb Code     0  arm_startup_nrf52.o(.text)
    SPIM2_SPIS2_SPI2_IRQHandler              0x0001f51d   Thumb Code     0  arm_startup_nrf52.o(.text)
    SWI1_EGU1_IRQHandler                     0x0001f51d   Thumb Code     0  arm_startup_nrf52.o(.text)
    SWI3_EGU3_IRQHandler                     0x0001f51d   Thumb Code     0  arm_startup_nrf52.o(.text)
    SWI4_EGU4_IRQHandler                     0x0001f51d   Thumb Code     0  arm_startup_nrf52.o(.text)
    SWI5_EGU5_IRQHandler                     0x0001f51d   Thumb Code     0  arm_startup_nrf52.o(.text)
    TEMP_IRQHandler                          0x0001f51d   Thumb Code     0  arm_startup_nrf52.o(.text)
    TIMER0_IRQHandler                        0x0001f51d   Thumb Code     0  arm_startup_nrf52.o(.text)
    TIMER1_IRQHandler                        0x0001f51d   Thumb Code     0  arm_startup_nrf52.o(.text)
    TIMER2_IRQHandler                        0x0001f51d   Thumb Code     0  arm_startup_nrf52.o(.text)
    TIMER3_IRQHandler                        0x0001f51d   Thumb Code     0  arm_startup_nrf52.o(.text)
    TIMER4_IRQHandler                        0x0001f51d   Thumb Code     0  arm_startup_nrf52.o(.text)
    WDT_IRQHandler                           0x0001f51d   Thumb Code     0  arm_startup_nrf52.o(.text)
    __aeabi_memcpy                           0x0001f529   Thumb Code    36  memcpya.o(.text)
    __aeabi_memcpy4                          0x0001f529   Thumb Code     0  memcpya.o(.text)
    __aeabi_memcpy8                          0x0001f529   Thumb Code     0  memcpya.o(.text)
    __aeabi_memset                           0x0001f54d   Thumb Code    14  memseta.o(.text)
    __aeabi_memset4                          0x0001f54d   Thumb Code     0  memseta.o(.text)
    __aeabi_memset8                          0x0001f54d   Thumb Code     0  memseta.o(.text)
    __aeabi_memclr                           0x0001f55b   Thumb Code     4  memseta.o(.text)
    __aeabi_memclr4                          0x0001f55b   Thumb Code     0  memseta.o(.text)
    __aeabi_memclr8                          0x0001f55b   Thumb Code     0  memseta.o(.text)
    _memset$wrapper                          0x0001f55f   Thumb Code    18  memseta.o(.text)
    strncpy                                  0x0001f571   Thumb Code    24  strncpy.o(.text)
    strlen                                   0x0001f589   Thumb Code    14  strlen.o(.text)
    memcmp                                   0x0001f597   Thumb Code    26  memcmp.o(.text)
    strncmp                                  0x0001f5b1   Thumb Code    30  strncmp.o(.text)
    __aeabi_uidiv                            0x0001f5cf   Thumb Code     0  uidiv.o(.text)
    __aeabi_uidivmod                         0x0001f5cf   Thumb Code    44  uidiv.o(.text)
    __scatterload                            0x0001f5fd   Thumb Code    28  init.o(.text)
    __scatterload_rt2                        0x0001f5fd   Thumb Code     0  init.o(.text)
    __decompress                             0x0001f621   Thumb Code     0  __dczerorl2.o(.text)
    __decompress1                            0x0001f621   Thumb Code    86  __dczerorl2.o(.text)
    GPIOTE_IRQHandler                        0x0001f679   Thumb Code   246  nrf_drv_gpiote.o(i.GPIOTE_IRQHandler)
    RTC1_IRQHandler                          0x0001f7e1   Thumb Code    32  app_timer.o(i.RTC1_IRQHandler)
    SWI0_EGU0_IRQHandler                     0x0001f805   Thumb Code     4  app_timer.o(i.SWI0_EGU0_IRQHandler)
    SWI2_EGU2_IRQHandler                     0x0001f809   Thumb Code    36  softdevice_handler.o(i.SWI2_EGU2_IRQHandler)
    SystemInit                               0x0001f831   Thumb Code   254  system_nrf52.o(i.SystemInit)
    UARTE0_UART0_IRQHandler                  0x0001f951   Thumb Code   390  nrf_drv_uart.o(i.UARTE0_UART0_IRQHandler)
    __0sprintf$1                             0x0001fae1   Thumb Code    34  printf1.o(i.__0sprintf$1)
    __1sprintf$1                             0x0001fae1   Thumb Code     0  printf1.o(i.__0sprintf$1)
    __2sprintf                               0x0001fae1   Thumb Code     0  printf1.o(i.__0sprintf$1)
    __scatterload_copy                       0x0001fb09   Thumb Code    14  handlers.o(i.__scatterload_copy)
    __scatterload_null                       0x0001fb17   Thumb Code     2  handlers.o(i.__scatterload_null)
    __scatterload_zeroinit                   0x0001fb19   Thumb Code    14  handlers.o(i.__scatterload_zeroinit)
    adv_data_encode                          0x0001ffe5   Thumb Code   514  ble_advdata.o(i.adv_data_encode)
    app_button_enable                        0x0002020d   Thumb Code    32  app_button.o(i.app_button_enable)
    app_button_init                          0x00020231   Thumb Code    96  app_button.o(i.app_button_init)
    app_error_handler                        0x000202a5   Thumb Code    92  main.o(i.app_error_handler)
    app_timer_create                         0x00020375   Thumb Code    32  app_timer.o(i.app_timer_create)
    app_timer_init                           0x00020399   Thumb Code   134  app_timer.o(i.app_timer_init)
    app_timer_start                          0x00020429   Thumb Code   118  app_timer.o(i.app_timer_start)
    app_timer_stop                           0x000204a9   Thumb Code    76  app_timer.o(i.app_timer_stop)
    ble_6lowpan_init                         0x000205f9   Thumb Code    52  ble_6lowpan.o(i.ble_6lowpan_init)
    ble_6lowpan_interface_send               0x00020635   Thumb Code   184  ble_6lowpan.o(i.ble_6lowpan_interface_send)
    ble_advdata_set                          0x000206f5   Thumb Code   104  ble_advdata.o(i.ble_advdata_set)
    ble_ipsp_disconnect                      0x000207d5   Thumb Code    78  ble_ipsp.o(i.ble_ipsp_disconnect)
    ble_ipsp_evt_handler                     0x0002082d   Thumb Code   744  ble_ipsp.o(i.ble_ipsp_evt_handler)
    ble_ipsp_init                            0x00020b1d   Thumb Code    58  ble_ipsp.o(i.ble_ipsp_init)
    ble_ipsp_send                            0x00020b5d   Thumb Code    72  ble_ipsp.o(i.ble_ipsp_send)
    ble_ncfgs_ble_evt_handler                0x00020ba9   Thumb Code   258  ble_ncfgs.o(i.ble_ncfgs_ble_evt_handler)
    ble_ncfgs_init                           0x00020d09   Thumb Code    24  ble_ncfgs.o(i.ble_ncfgs_init)
    coap_error_handler_register              0x00021221   Thumb Code     8  coap.o(i.coap_error_handler_register)
    coap_init                                0x0002122d   Thumb Code    44  coap.o(i.coap_init)
    coap_message_accept_mask_get             0x0002125d   Thumb Code    76  coap_message.o(i.coap_message_accept_mask_get)
    coap_message_create                      0x000212a9   Thumb Code    82  coap_message.o(i.coap_message_create)
    coap_message_ct_match_select             0x000212fb   Thumb Code   114  coap_message.o(i.coap_message_ct_match_select)
    coap_message_decode                      0x0002136d   Thumb Code   198  coap_message.o(i.coap_message_decode)
    coap_message_delete                      0x00021433   Thumb Code    20  coap.o(i.coap_message_delete)
    coap_message_encode                      0x00021449   Thumb Code   240  coap_message.o(i.coap_message_encode)
    coap_message_new                         0x00021539   Thumb Code   110  coap.o(i.coap_message_new)
    coap_message_opt_uint_add                0x000215ad   Thumb Code   136  coap_message.o(i.coap_message_opt_uint_add)
    coap_message_payload_set                 0x00021635   Thumb Code    24  coap_message.o(i.coap_message_payload_set)
    coap_message_remote_addr_set             0x0002164d   Thumb Code    12  coap_message.o(i.coap_message_remote_addr_set)
    coap_message_send                        0x00021659   Thumb Code     4  coap.o(i.coap_message_send)
    coap_opt_uint_decode                     0x0002165d   Thumb Code   120  coap_option.o(i.coap_opt_uint_decode)
    coap_opt_uint_encode                     0x000216d5   Thumb Code    86  coap_option.o(i.coap_opt_uint_encode)
    coap_queue_add                           0x0002172d   Thumb Code    82  coap_queue.o(i.coap_queue_add)
    coap_queue_init                          0x00021789   Thumb Code    42  coap_queue.o(i.coap_queue_init)
    coap_queue_item_by_mid_get               0x000217bd   Thumb Code    50  coap_queue.o(i.coap_queue_item_by_mid_get)
    coap_queue_item_by_token_get             0x000217f5   Thumb Code    72  coap_queue.o(i.coap_queue_item_by_token_get)
    coap_queue_item_next_get                 0x00021841   Thumb Code    80  coap_queue.o(i.coap_queue_item_next_get)
    coap_queue_remove                        0x00021895   Thumb Code    60  coap_queue.o(i.coap_queue_remove)
    coap_resource_child_add                  0x000218d9   Thumb Code    36  coap_resource.o(i.coap_resource_child_add)
    coap_resource_create                     0x000218fd   Thumb Code    68  coap_resource.o(i.coap_resource_create)
    coap_resource_get                        0x00021945   Thumb Code   100  coap_resource.o(i.coap_resource_get)
    coap_resource_init                       0x000219ad   Thumb Code     8  coap_resource.o(i.coap_resource_init)
    coap_resource_well_known_generate        0x000219b9   Thumb Code    70  coap_resource.o(i.coap_resource_well_known_generate)
    coap_time_tick                           0x00021a05   Thumb Code   128  coap.o(i.coap_time_tick)
    coap_transport_init                      0x00021a85   Thumb Code    84  coap_transport_ipv6.o(i.coap_transport_init)
    coap_transport_process                   0x00021ae5   Thumb Code     2  coap_transport_ipv6.o(i.coap_transport_process)
    coap_transport_read                      0x00021ae9   Thumb Code   578  coap.o(i.coap_transport_read)
    coap_transport_write                     0x00021d31   Thumb Code   130  coap_transport_ipv6.o(i.coap_transport_write)
    commissioning_adv_params_get             0x00021df9   Thumb Code    28  commissioning.o(i.commissioning_adv_params_get)
    commissioning_ble_evt_handler            0x00021e1d   Thumb Code   232  commissioning.o(i.commissioning_ble_evt_handler)
    commissioning_evt_handler                0x00021f0d   Thumb Code   114  ipv6_medium_ble.o(i.commissioning_evt_handler)
    commissioning_gap_params_get             0x00021f85   Thumb Code    28  commissioning.o(i.commissioning_gap_params_get)
    commissioning_id_mode_cb                 0x00021fa9   Thumb Code    36  main.o(i.commissioning_id_mode_cb)
    commissioning_init                       0x00021fd5   Thumb Code   230  commissioning.o(i.commissioning_init)
    commissioning_joining_mode_timer_ctrl    0x000220dd   Thumb Code    26  commissioning.o(i.commissioning_joining_mode_timer_ctrl)
    commissioning_node_mode_change           0x000220fd   Thumb Code   134  commissioning.o(i.commissioning_node_mode_change)
    commissioning_power_off_cb               0x0002218d   Thumb Code     6  main.o(i.commissioning_power_off_cb)
    commissioning_settings_clear             0x00022199   Thumb Code    38  commissioning.o(i.commissioning_settings_clear)
    commissioning_time_tick                  0x000221c9   Thumb Code    52  commissioning.o(i.commissioning_time_tick)
    icmp6_handler                            0x00022ec9   Thumb Code     4  main.o(i.icmp6_handler)
    icmp6_init                               0x00022ecd   Thumb Code    14  icmp6.o(i.icmp6_init)
    icmp6_input                              0x00022ee1   Thumb Code   222  icmp6.o(i.icmp6_input)
    icmp6_receive_register                   0x00022fc5   Thumb Code    26  icmp6.o(i.icmp6_receive_register)
    icmp6_rs_send                            0x00022fe5   Thumb Code   266  icmp6.o(i.icmp6_rs_send)
    identity_mode_timeout_handler            0x00023109   Thumb Code    24  commissioning.o(i.identity_mode_timeout_handler)
    intern_softdevice_events_execute         0x000231cd   Thumb Code   114  softdevice_handler.o(i.intern_softdevice_events_execute)
    internal_coap_message_send               0x00023245   Thumb Code   262  coap.o(i.internal_coap_message_send)
    iot_context_manager_get_by_addr          0x0002334d   Thumb Code    58  iot_context_manager.o(i.iot_context_manager_get_by_addr)
    iot_context_manager_get_by_cid           0x0002338d   Thumb Code    64  iot_context_manager.o(i.iot_context_manager_get_by_cid)
    iot_context_manager_init                 0x000233d1   Thumb Code    18  iot_context_manager.o(i.iot_context_manager_init)
    iot_context_manager_remove               0x000233e9   Thumb Code    80  iot_context_manager.o(i.iot_context_manager_remove)
    iot_context_manager_table_alloc          0x00023441   Thumb Code    60  iot_context_manager.o(i.iot_context_manager_table_alloc)
    iot_context_manager_table_free           0x00023485   Thumb Code    46  iot_context_manager.o(i.iot_context_manager_table_free)
    iot_context_manager_update               0x000234b9   Thumb Code   236  iot_context_manager.o(i.iot_context_manager_update)
    iot_pbuffer_allocate                     0x000235ad   Thumb Code   110  iot_pbuffer.o(i.iot_pbuffer_allocate)
    iot_pbuffer_free                         0x00023621   Thumb Code    58  iot_pbuffer.o(i.iot_pbuffer_free)
    iot_pbuffer_init                         0x00023661   Thumb Code    36  iot_pbuffer.o(i.iot_pbuffer_init)
    iot_timer_client_list_set                0x0002368d   Thumb Code    68  iot_timer.o(i.iot_timer_client_list_set)
    iot_timer_update                         0x000236ed   Thumb Code    72  iot_timer.o(i.iot_timer_update)
    ipv6_address_find_best_match             0x00024291   Thumb Code   210  ipv6.o(i.ipv6_address_find_best_match)
    ipv6_address_remove                      0x0002436d   Thumb Code   108  ipv6.o(i.ipv6_address_remove)
    ipv6_address_set                         0x000243e1   Thumb Code    28  ipv6.o(i.ipv6_address_set)
    ipv6_checksum_calculate                  0x00024401   Thumb Code    94  ipv6_utils.o(i.ipv6_checksum_calculate)
    ipv6_header_init                         0x0002445f   Thumb Code    22  ipv6_utils.o(i.ipv6_header_init)
    ipv6_init                                0x00024475   Thumb Code   102  ipv6.o(i.ipv6_init)
    ipv6_medium_connectable_mode_enter       0x00024549   Thumb Code    62  ipv6_medium_ble.o(i.ipv6_medium_connectable_mode_enter)
    ipv6_medium_connectable_mode_exit        0x0002458d   Thumb Code    26  ipv6_medium_ble.o(i.ipv6_medium_connectable_mode_exit)
    ipv6_medium_eui48_get                    0x000245ad   Thumb Code    34  ipv6_medium_ble.o(i.ipv6_medium_eui48_get)
    ipv6_medium_eui48_set                    0x000245d5   Thumb Code    42  ipv6_medium_ble.o(i.ipv6_medium_eui48_set)
    ipv6_medium_eui64_get                    0x00024605   Thumb Code    96  ipv6_medium_ble.o(i.ipv6_medium_eui64_get)
    ipv6_medium_init                         0x00024669   Thumb Code    84  ipv6_medium_ble.o(i.ipv6_medium_init)
    ipv6_send                                0x000246c5   Thumb Code    52  ipv6.o(i.ipv6_send)
    joining_mode_timeout_handler             0x00024895   Thumb Code    40  commissioning.o(i.joining_mode_timeout_handler)
    main                                     0x00024b21   Thumb Code   390  main.o(i.main)
    nrf_delay_ms                             0x00024df1   Thumb Code    26  nrf_delay.o(i.nrf_delay_ms)
    nrf_drv_common_irq_enable                0x00024e0b   Thumb Code    56  nrf_drv_common.o(i.nrf_drv_common_irq_enable)
    nrf_drv_gpiote_in_event_enable           0x00024e45   Thumb Code   150  nrf_drv_gpiote.o(i.nrf_drv_gpiote_in_event_enable)
    nrf_drv_gpiote_in_init                   0x00024ee9   Thumb Code   170  nrf_drv_gpiote.o(i.nrf_drv_gpiote_in_init)
    nrf_drv_gpiote_in_is_set                 0x00024fa1   Thumb Code    16  nrf_drv_gpiote.o(i.nrf_drv_gpiote_in_is_set)
    nrf_drv_gpiote_init                      0x00024fb5   Thumb Code    76  nrf_drv_gpiote.o(i.nrf_drv_gpiote_init)
    nrf_drv_gpiote_is_init                   0x00025009   Thumb Code    14  nrf_drv_gpiote.o(i.nrf_drv_gpiote_is_init)
    nrf_free                                 0x0002501d   Thumb Code    56  mem_manager.o(i.nrf_free)
    nrf_mem_init                             0x000250c1   Thumb Code    26  mem_manager.o(i.nrf_mem_init)
    nrf_mem_reserve                          0x000250e1   Thumb Code   168  mem_manager.o(i.nrf_mem_reserve)
    on_ble_ncfgs_evt                         0x00025235   Thumb Code   188  commissioning.o(i.on_ble_ncfgs_evt)
    pstorage_clear                           0x00025451   Thumb Code   148  pstorage.o(i.pstorage_clear)
    pstorage_init                            0x000254f9   Thumb Code    88  pstorage.o(i.pstorage_init)
    pstorage_load                            0x0002555d   Thumb Code   158  pstorage.o(i.pstorage_load)
    pstorage_register                        0x00025605   Thumb Code   172  pstorage.o(i.pstorage_register)
    pstorage_sys_event_handler               0x000256b9   Thumb Code    66  pstorage.o(i.pstorage_sys_event_handler)
    pstorage_update                          0x00025701   Thumb Code   128  pstorage.o(i.pstorage_update)
    softdevice_assertion_handler             0x00025ac9   Thumb Code    12  softdevice_handler.o(i.softdevice_assertion_handler)
    softdevice_ble_evt_handler_set           0x00025ad5   Thumb Code    14  softdevice_handler.o(i.softdevice_ble_evt_handler_set)
    softdevice_handler_init                  0x00025ae9   Thumb Code    38  softdevice_handler.o(i.softdevice_handler_init)
    softdevice_sys_evt_handler_set           0x00025b19   Thumb Code    14  softdevice_handler.o(i.softdevice_sys_evt_handler_set)
    udp6_socket_allocate                     0x00025f5d   Thumb Code    68  udp6.o(i.udp6_socket_allocate)
    udp6_socket_app_data_set                 0x00025fa9   Thumb Code    54  udp6.o(i.udp6_socket_app_data_set)
    udp6_socket_bind                         0x00025fe9   Thumb Code   122  udp6.o(i.udp6_socket_bind)
    udp6_socket_free                         0x0002606d   Thumb Code    56  udp6.o(i.udp6_socket_free)
    udp6_socket_recv                         0x000260ad   Thumb Code    66  udp6.o(i.udp6_socket_recv)
    udp6_socket_sendto                       0x000260f9   Thumb Code   314  udp6.o(i.udp6_socket_sendto)
    udp_init                                 0x00026241   Thumb Code    40  udp6.o(i.udp_init)
    udp_input                                0x00026271   Thumb Code   354  udp6.o(i.udp_input)
    well_known_core_callback                 0x00026541   Thumb Code   216  main.o(i.well_known_core_callback)
    Region$$Table$$Base                      0x00026720   Number         0  anon$$obj.o(Region$$Table)
    Region$$Table$$Limit                     0x00026740   Number         0  anon$$obj.o(Region$$Table)
    eui64_local_iid                          0x2000281c   Data           8  main.o(.data)
    SystemCoreClock                          0x200029ec   Data           4  system_nrf52.o(.data)
    ipv6_addr_any                            0x20003604   Data          16  ipv6.o(.bss)
    __initial_sp                             0x20007e38   Data           0  arm_startup_nrf52.o(STACK)



==============================================================================

Memory Map of the image

  Image Entry point : 0x0001f401

  Load Region LR_IROM1 (Base: 0x0001f000, Size: 0x00007940, Max: 0x00061000, ABSOLUTE, COMPRESSED[0x00007788])

    Execution Region ER_IROM1 (Base: 0x0001f000, Size: 0x00007740, Max: 0x00061000, ABSOLUTE)

    Base Addr    Size         Type   Attr      Idx    E Section Name        Object

    0x0001f000   0x00000400   Data   RO         3099    RESET               arm_startup_nrf52.o
    0x0001f400   0x00000000   Code   RO         3198  * .ARM.Collect$$$$00000000  mc_w.l(entry.o)
    0x0001f400   0x00000004   Code   RO         3482    .ARM.Collect$$$$00000001  mc_w.l(entry2.o)
    0x0001f404   0x00000004   Code   RO         3485    .ARM.Collect$$$$00000004  mc_w.l(entry5.o)
    0x0001f408   0x00000000   Code   RO         3487    .ARM.Collect$$$$00000008  mc_w.l(entry7b.o)
    0x0001f408   0x00000000   Code   RO         3489    .ARM.Collect$$$$0000000A  mc_w.l(entry8b.o)
    0x0001f408   0x00000008   Code   RO         3490    .ARM.Collect$$$$0000000B  mc_w.l(entry9a.o)
    0x0001f410   0x00000000   Code   RO         3492    .ARM.Collect$$$$0000000D  mc_w.l(entry10a.o)
    0x0001f410   0x00000000   Code   RO         3494    .ARM.Collect$$$$0000000F  mc_w.l(entry11a.o)
    0x0001f410   0x00000004   Code   RO         3483    .ARM.Collect$$$$00002712  mc_w.l(entry2.o)
    0x0001f414   0x00000076   Code   RO          751    .emb_text           nrf_delay.o
    0x0001f48a   0x00000002   PAD
    0x0001f48c   0x00000076   Code   RO         2756    .emb_text           app_timer.o
    0x0001f502   0x00000002   PAD
    0x0001f504   0x00000024   Code   RO         3100    .text               arm_startup_nrf52.o
    0x0001f528   0x00000024   Code   RO         3201    .text               mc_w.l(memcpya.o)
    0x0001f54c   0x00000024   Code   RO         3203    .text               mc_w.l(memseta.o)
    0x0001f570   0x00000018   Code   RO         3207    .text               mc_w.l(strncpy.o)
    0x0001f588   0x0000000e   Code   RO         3209    .text               mc_w.l(strlen.o)
    0x0001f596   0x0000001a   Code   RO         3211    .text               mc_w.l(memcmp.o)
    0x0001f5b0   0x0000001e   Code   RO         3213    .text               mc_w.l(strncmp.o)
    0x0001f5ce   0x0000002c   Code   RO         3496    .text               mc_w.l(uidiv.o)
    0x0001f5fa   0x00000002   PAD
    0x0001f5fc   0x00000024   Code   RO         3517    .text               mc_w.l(init.o)
    0x0001f620   0x00000056   Code   RO         3542    .text               mc_w.l(__dczerorl2.o)
    0x0001f676   0x00000002   PAD
    0x0001f678   0x00000104   Code   RO          814    i.GPIOTE_IRQHandler  nrf_drv_gpiote.o
    0x0001f77c   0x00000016   Code   RO         2757    i.NVIC_ClearPendingIRQ  app_timer.o
    0x0001f792   0x00000016   Code   RO         2758    i.NVIC_EnableIRQ    app_timer.o
    0x0001f7a8   0x00000016   Code   RO         2759    i.NVIC_SetPendingIRQ  app_timer.o
    0x0001f7be   0x00000020   Code   RO         2760    i.NVIC_SetPriority  app_timer.o
    0x0001f7de   0x00000002   PAD
    0x0001f7e0   0x00000024   Code   RO         2761    i.RTC1_IRQHandler   app_timer.o
    0x0001f804   0x00000004   Code   RO         2762    i.SWI0_EGU0_IRQHandler  app_timer.o
    0x0001f808   0x00000028   Code   RO         3032    i.SWI2_EGU2_IRQHandler  softdevice_handler.o
    0x0001f830   0x00000120   Code   RO         3108    i.SystemInit        system_nrf52.o
    0x0001f950   0x00000190   Code   RO         1013    i.UARTE0_UART0_IRQHandler  nrf_drv_uart.o
    0x0001fae0   0x00000028   Code   RO         3264    i.__0sprintf$1      mc_w.l(printf1.o)
    0x0001fb08   0x0000000e   Code   RO         3536    i.__scatterload_copy  mc_w.l(handlers.o)
    0x0001fb16   0x00000002   Code   RO         3537    i.__scatterload_null  mc_w.l(handlers.o)
    0x0001fb18   0x0000000e   Code   RO         3538    i.__scatterload_zeroinit  mc_w.l(handlers.o)
    0x0001fb26   0x00000002   PAD
    0x0001fb28   0x00000154   Code   RO         3269    i._printf_core      mc_w.l(printf1.o)
    0x0001fc7c   0x0000000a   Code   RO         3271    i._sputc            mc_w.l(printf1.o)
    0x0001fc86   0x00000002   PAD
    0x0001fc88   0x0000000c   Code   RO         2467    i.action_timeout_handler  commissioning.o
    0x0001fc94   0x000000a0   Code   RO         2417    i.add_ip_cfg_cp_characteristic  ble_ncfgs.o
    0x0001fd34   0x000000a0   Code   RO         2418    i.add_keys_store_characteristic  ble_ncfgs.o
    0x0001fdd4   0x0000001e   Code   RO         1845    i.add_sllao_opt     icmp6.o
    0x0001fdf2   0x00000002   PAD
    0x0001fdf4   0x000000a0   Code   RO         2419    i.add_ssid_characteristic  ble_ncfgs.o
    0x0001fe94   0x00000074   Code   RO         2097    i.addr_check        ipv6.o
    0x0001ff08   0x0000003c   Code   RO         2098    i.addr_free         ipv6.o
    0x0001ff44   0x000000a0   Code   RO         2099    i.addr_set          ipv6.o
    0x0001ffe4   0x00000202   Code   RO          492    i.adv_data_encode   ble_advdata.o
    0x000201e6   0x00000002   PAD
    0x000201e8   0x00000024   Code   RO         2192    i.adv_params_apply  ipv6_medium_ble.o
    0x0002020c   0x00000024   Code   RO         2616    i.app_button_enable  app_button.o
    0x00020230   0x00000070   Code   RO         2617    i.app_button_init   app_button.o
    0x000202a0   0x00000004   Code   RO            5    i.app_coap_time_tick  main.o
    0x000202a4   0x00000070   Code   RO            6    i.app_error_handler  main.o
    0x00020314   0x00000010   Code   RO         1423    i.app_error_notify  coap.o
    0x00020324   0x0000002c   Code   RO         1183    i.app_notify        pstorage.o
    0x00020350   0x00000024   Code   RO         1184    i.app_notify_error_state_transit  pstorage.o
    0x00020374   0x00000024   Code   RO         2765    i.app_timer_create  app_timer.o
    0x00020398   0x00000090   Code   RO         2766    i.app_timer_init    app_timer.o
    0x00020428   0x00000080   Code   RO         2767    i.app_timer_start   app_timer.o
    0x000204a8   0x00000050   Code   RO         2768    i.app_timer_stop    app_timer.o
    0x000204f8   0x00000100   Code   RO         2100    i.ble_6lowpan_evt_handler  ipv6.o
    0x000205f8   0x0000003c   Code   RO         3143    i.ble_6lowpan_init  ble_6lowpan.lib(ble_6lowpan.o)
    0x00020634   0x000000c0   Code   RO         3145    i.ble_6lowpan_interface_send  ble_6lowpan.lib(ble_6lowpan.o)
    0x000206f4   0x00000068   Code   RO          493    i.ble_advdata_set   ble_advdata.o
    0x0002075c   0x0000005e   Code   RO          494    i.ble_device_addr_encode  ble_advdata.o
    0x000207ba   0x00000018   Code   RO         2193    i.ble_evt_dispatch  ipv6_medium_ble.o
    0x000207d2   0x00000002   PAD
    0x000207d4   0x00000058   Code   RO         3179    i.ble_ipsp_disconnect  ble_6lowpan.lib(ble_ipsp.o)
    0x0002082c   0x000002f0   Code   RO         3180    i.ble_ipsp_evt_handler  ble_6lowpan.lib(ble_ipsp.o)
    0x00020b1c   0x00000040   Code   RO         3181    i.ble_ipsp_init     ble_6lowpan.lib(ble_ipsp.o)
    0x00020b5c   0x0000004c   Code   RO         3182    i.ble_ipsp_send     ble_6lowpan.lib(ble_ipsp.o)
    0x00020ba8   0x0000010c   Code   RO         2420    i.ble_ncfgs_ble_evt_handler  ble_ncfgs.o
    0x00020cb4   0x00000054   Code   RO         2421    i.ble_ncfgs_create_database  ble_ncfgs.o
    0x00020d08   0x00000020   Code   RO         2422    i.ble_ncfgs_init    ble_ncfgs.o
    0x00020d28   0x00000050   Code   RO         2194    i.ble_stack_init    ipv6_medium_ble.o
    0x00020d78   0x00000094   Code   RO            8    i.blink_timeout_handler  main.o
    0x00020e0c   0x00000020   Code   RO         2924    i.block_init        mem_manager.o
    0x00020e2c   0x0000000e   Code   RO            9    i.button_event_handler  main.o
    0x00020e3a   0x00000002   PAD
    0x00020e3c   0x0000001c   Code   RO          815    i.channel_free      nrf_drv_gpiote.o
    0x00020e58   0x00000030   Code   RO         3183    i.channel_init      ble_6lowpan.lib(ble_ipsp.o)
    0x00020e88   0x00000048   Code   RO          816    i.channel_port_alloc  nrf_drv_gpiote.o
    0x00020ed0   0x00000010   Code   RO          817    i.channel_port_get  nrf_drv_gpiote.o
    0x00020ee0   0x0000002c   Code   RO         3184    i.channel_search    ble_6lowpan.lib(ble_ipsp.o)
    0x00020f0c   0x000000fc   Code   RO         1185    i.clear_operation_execute  pstorage.o
    0x00021008   0x00000020   Code   RO         1186    i.clear_post_processing_run  pstorage.o
    0x00021028   0x00000034   Code   RO         1187    i.cmd_process       pstorage.o
    0x0002105c   0x00000020   Code   RO         1188    i.cmd_queue_element_init  pstorage.o
    0x0002107c   0x00000054   Code   RO         1189    i.cmd_queue_enqueue  pstorage.o
    0x000210d0   0x0000014c   Code   RO           10    i.coap_endpoints_init  main.o
    0x0002121c   0x00000002   Code   RO           11    i.coap_error_handler  main.o
    0x0002121e   0x00000002   PAD
    0x00021220   0x0000000c   Code   RO         1424    i.coap_error_handler_register  coap.o
    0x0002122c   0x00000030   Code   RO         1425    i.coap_init         coap.o
    0x0002125c   0x0000004c   Code   RO         1560    i.coap_message_accept_mask_get  coap_message.o
    0x000212a8   0x00000052   Code   RO         1561    i.coap_message_create  coap_message.o
    0x000212fa   0x00000072   Code   RO         1563    i.coap_message_ct_match_select  coap_message.o
    0x0002136c   0x000000c6   Code   RO         1564    i.coap_message_decode  coap_message.o
    0x00021432   0x00000014   Code   RO         1427    i.coap_message_delete  coap.o
    0x00021446   0x00000002   PAD
    0x00021448   0x000000f0   Code   RO         1565    i.coap_message_encode  coap_message.o
    0x00021538   0x00000074   Code   RO         1428    i.coap_message_new  coap.o
    0x000215ac   0x00000088   Code   RO         1571    i.coap_message_opt_uint_add  coap_message.o
    0x00021634   0x00000018   Code   RO         1572    i.coap_message_payload_set  coap_message.o
    0x0002164c   0x0000000c   Code   RO         1573    i.coap_message_remote_addr_set  coap_message.o
    0x00021658   0x00000004   Code   RO         1429    i.coap_message_send  coap.o
    0x0002165c   0x00000078   Code   RO         1667    i.coap_opt_uint_decode  coap_option.o
    0x000216d4   0x00000056   Code   RO         1668    i.coap_opt_uint_encode  coap_option.o
    0x0002172a   0x00000002   PAD
    0x0002172c   0x0000005c   Code   RO         1695    i.coap_queue_add    coap_queue.o
    0x00021788   0x00000034   Code   RO         1696    i.coap_queue_init   coap_queue.o
    0x000217bc   0x00000038   Code   RO         1697    i.coap_queue_item_by_mid_get  coap_queue.o
    0x000217f4   0x0000004c   Code   RO         1698    i.coap_queue_item_by_token_get  coap_queue.o
    0x00021840   0x00000054   Code   RO         1699    i.coap_queue_item_next_get  coap_queue.o
    0x00021894   0x00000044   Code   RO         1700    i.coap_queue_remove  coap_queue.o
    0x000218d8   0x00000024   Code   RO         1740    i.coap_resource_child_add  coap_resource.o
    0x000218fc   0x00000048   Code   RO         1741    i.coap_resource_create  coap_resource.o
    0x00021944   0x00000068   Code   RO         1742    i.coap_resource_get  coap_resource.o
    0x000219ac   0x0000000c   Code   RO         1743    i.coap_resource_init  coap_resource.o
    0x000219b8   0x0000004c   Code   RO         1745    i.coap_resource_well_known_generate  coap_resource.o
    0x00021a04   0x00000080   Code   RO         1431    i.coap_time_tick    coap.o
    0x00021a84   0x00000060   Code   RO         1792    i.coap_transport_init  coap_transport_ipv6.o
    0x00021ae4   0x00000002   Code   RO         1793    i.coap_transport_process  coap_transport_ipv6.o
    0x00021ae6   0x00000002   PAD
    0x00021ae8   0x00000248   Code   RO         1432    i.coap_transport_read  coap.o
    0x00021d30   0x00000088   Code   RO         1794    i.coap_transport_write  coap_transport_ipv6.o
    0x00021db8   0x00000040   Code   RO         1190    i.command_end_procedure_run  pstorage.o
    0x00021df8   0x00000024   Code   RO         2468    i.commissioning_adv_params_get  commissioning.o
    0x00021e1c   0x000000f0   Code   RO         2469    i.commissioning_ble_evt_handler  commissioning.o
    0x00021f0c   0x00000078   Code   RO         2195    i.commissioning_evt_handler  ipv6_medium_ble.o
    0x00021f84   0x00000024   Code   RO         2470    i.commissioning_gap_params_get  commissioning.o
    0x00021fa8   0x0000002c   Code   RO           12    i.commissioning_id_mode_cb  main.o
    0x00021fd4   0x00000108   Code   RO         2471    i.commissioning_init  commissioning.o
    0x000220dc   0x00000020   Code   RO         2472    i.commissioning_joining_mode_timer_ctrl  commissioning.o
    0x000220fc   0x00000090   Code   RO         2473    i.commissioning_node_mode_change  commissioning.o
    0x0002218c   0x0000000c   Code   RO           13    i.commissioning_power_off_cb  main.o
    0x00022198   0x00000030   Code   RO         2474    i.commissioning_settings_clear  commissioning.o
    0x000221c8   0x00000038   Code   RO         2475    i.commissioning_time_tick  commissioning.o
    0x00022200   0x00000018   Code   RO         2476    i.commissioning_timer_start  commissioning.o
    0x00022218   0x00000018   Code   RO         2477    i.commissioning_timer_stop_reset  commissioning.o
    0x00022230   0x000000ac   Code   RO         2770    i.compare_reg_update  app_timer.o
    0x000222dc   0x00000064   Code   RO         2478    i.config_mode_adv_params_set  commissioning.o
    0x00022340   0x00000050   Code   RO         2479    i.config_mode_gap_params_set  commissioning.o
    0x00022390   0x00000030   Code   RO         2480    i.config_mode_timeout_handler  commissioning.o
    0x000223c0   0x00000088   Code   RO          495    i.conn_int_encode   ble_advdata.o
    0x00022448   0x00000024   Code   RO           14    i.connectable_mode_enter  main.o
    0x0002246c   0x00000034   Code   RO         1574    i.content_format_to_bit  coap_message.o
    0x000224a0   0x00000044   Code   RO         1924    i.context_find_by_cid  iot_context_manager.o
    0x000224e4   0x000000ac   Code   RO         1925    i.context_find_by_prefix  iot_context_manager.o
    0x00022590   0x00000014   Code   RO         1926    i.context_init      iot_context_manager.o
    0x000225a4   0x00000014   Code   RO         1927    i.context_table_find  iot_context_manager.o
    0x000225b8   0x0000003c   Code   RO         1928    i.context_table_init  iot_context_manager.o
    0x000225f4   0x000000a6   Code   RO         1433    i.create_response   coap.o
    0x0002269a   0x00000002   PAD
    0x0002269c   0x0000006c   Code   RO         2423    i.ctrlp_value_decode  ble_ncfgs.o
    0x00022708   0x00000054   Code   RO         1191    i.data_page_erase_state_run  pstorage.o
    0x0002275c   0x00000020   Code   RO         1192    i.data_to_swap_write_state_run  pstorage.o
    0x0002277c   0x0000007a   Code   RO         1575    i.decode_option     coap_message.o
    0x000227f6   0x00000002   PAD
    0x000227f8   0x00000060   Code   RO         2619    i.detection_delay_timeout_handler  app_button.o
    0x00022858   0x00000126   Code   RO         1846    i.echo_reply_send   icmp6.o
    0x0002297e   0x00000002   PAD
    0x00022980   0x00000040   Code   RO         2771    i.elapsed_ticks_acquire  app_timer.o
    0x000229c0   0x000000c0   Code   RO         1576    i.encode_option     coap_message.o
    0x00022a80   0x0000001c   Code   RO         1193    i.flash_api_err_code_process  pstorage.o
    0x00022a9c   0x0000008c   Code   RO         1194    i.flash_operation_success_run  pstorage.o
    0x00022b28   0x00000006   Code   RO         1195    i.flash_page_erase  pstorage.o
    0x00022b2e   0x00000006   Code   RO         1196    i.flash_write       pstorage.o
    0x00022b34   0x00000044   Code   RO         2196    i.gap_params_apply  ipv6_medium_ble.o
    0x00022b78   0x000000e4   Code   RO         1746    i.generate_path     coap_resource.o
    0x00022c5c   0x0000003c   Code   RO         2925    i.get_block_cat     mem_manager.o
    0x00022c98   0x00000018   Code   RO         2926    i.get_block_size    mem_manager.o
    0x00022cb0   0x00000058   Code   RO         2620    i.gpiote_event_handler  app_button.o
    0x00022d08   0x00000148   Code   RO           15    i.handle_led_request  main.o
    0x00022e50   0x00000078   Code   RO         1197    i.head_restore_state_run  pstorage.o
    0x00022ec8   0x00000004   Code   RO           16    i.icmp6_handler     main.o
    0x00022ecc   0x00000014   Code   RO         1848    i.icmp6_init        icmp6.o
    0x00022ee0   0x000000e4   Code   RO         1849    i.icmp6_input       icmp6.o
    0x00022fc4   0x00000020   Code   RO         1851    i.icmp6_receive_register  icmp6.o
    0x00022fe4   0x00000110   Code   RO         1852    i.icmp6_rs_send     icmp6.o
    0x000230f4   0x00000012   Code   RO         1853    i.icmp_ip_header    icmp6.o
    0x00023106   0x00000002   PAD
    0x00023108   0x0000001c   Code   RO         2481    i.identity_mode_timeout_handler  commissioning.o
    0x00023124   0x0000002c   Code   RO         3146    i.instance_init     ble_6lowpan.lib(ble_6lowpan.o)
    0x00023150   0x00000054   Code   RO         3147    i.interface_add     ble_6lowpan.lib(ble_6lowpan.o)
    0x000231a4   0x00000026   Code   RO         2101    i.interface_reset   ipv6.o
    0x000231ca   0x00000002   PAD
    0x000231cc   0x00000078   Code   RO         3033    i.intern_softdevice_events_execute  softdevice_handler.o
    0x00023244   0x00000106   Code   RO         1434    i.internal_coap_message_send  coap.o
    0x0002334a   0x00000002   PAD
    0x0002334c   0x00000040   Code   RO         1929    i.iot_context_manager_get_by_addr  iot_context_manager.o
    0x0002338c   0x00000044   Code   RO         1930    i.iot_context_manager_get_by_cid  iot_context_manager.o
    0x000233d0   0x00000018   Code   RO         1931    i.iot_context_manager_init  iot_context_manager.o
    0x000233e8   0x00000058   Code   RO         1932    i.iot_context_manager_remove  iot_context_manager.o
    0x00023440   0x00000044   Code   RO         1933    i.iot_context_manager_table_alloc  iot_context_manager.o
    0x00023484   0x00000034   Code   RO         1934    i.iot_context_manager_table_free  iot_context_manager.o
    0x000234b8   0x000000f4   Code   RO         1935    i.iot_context_manager_update  iot_context_manager.o
    0x000235ac   0x00000074   Code   RO         2003    i.iot_pbuffer_allocate  iot_pbuffer.o
    0x00023620   0x00000040   Code   RO         2004    i.iot_pbuffer_free  iot_pbuffer.o
    0x00023660   0x0000002c   Code   RO         2005    i.iot_pbuffer_init  iot_pbuffer.o
    0x0002368c   0x00000048   Code   RO         2065    i.iot_timer_client_list_set  iot_timer.o
    0x000236d4   0x00000018   Code   RO           17    i.iot_timer_tick_callback  main.o
    0x000236ec   0x0000004c   Code   RO         2066    i.iot_timer_update  iot_timer.o
    0x00023738   0x00000068   Code   RO           18    i.ip_app_handler    main.o
    0x000237a0   0x000003d0   Code   RO         3148    i.iphc_decode       ble_6lowpan.lib(ble_6lowpan.o)
    0x00023b70   0x00000460   Code   RO         3149    i.iphc_encode       ble_6lowpan.lib(ble_6lowpan.o)
    0x00023fd0   0x0000009c   Code   RO         3150    i.iphc_nhc_decode   ble_6lowpan.lib(ble_6lowpan.o)
    0x0002406c   0x00000090   Code   RO         3151    i.iphc_nhc_encode   ble_6lowpan.lib(ble_6lowpan.o)
    0x000240fc   0x00000194   Code   RO         3152    i.ipsp_evt_handler  ble_6lowpan.lib(ble_6lowpan.o)
    0x00024290   0x000000dc   Code   RO         2102    i.ipv6_address_find_best_match  ipv6.o
    0x0002436c   0x00000074   Code   RO         2103    i.ipv6_address_remove  ipv6.o
    0x000243e0   0x00000020   Code   RO         2104    i.ipv6_address_set  ipv6.o
    0x00024400   0x0000005e   Code   RO         2322    i.ipv6_checksum_calculate  ipv6_utils.o
    0x0002445e   0x00000016   Code   RO         2323    i.ipv6_header_init  ipv6_utils.o
    0x00024474   0x00000074   Code   RO         2105    i.ipv6_init         ipv6.o
    0x000244e8   0x00000060   Code   RO         2106    i.ipv6_input        ipv6.o
    0x00024548   0x00000044   Code   RO         2197    i.ipv6_medium_connectable_mode_enter  ipv6_medium_ble.o
    0x0002458c   0x00000020   Code   RO         2198    i.ipv6_medium_connectable_mode_exit  ipv6_medium_ble.o
    0x000245ac   0x00000028   Code   RO         2199    i.ipv6_medium_eui48_get  ipv6_medium_ble.o
    0x000245d4   0x00000030   Code   RO         2200    i.ipv6_medium_eui48_set  ipv6_medium_ble.o
    0x00024604   0x00000064   Code   RO         2201    i.ipv6_medium_eui64_get  ipv6_medium_ble.o
    0x00024668   0x0000005c   Code   RO         2203    i.ipv6_medium_init  ipv6_medium_ble.o
    0x000246c4   0x00000038   Code   RO         2107    i.ipv6_send         ipv6.o
    0x000246fc   0x00000016   Code   RO         1435    i.is_ack            coap.o
    0x00024712   0x00000048   Code   RO         3153    i.is_context_cover_iid  ble_6lowpan.lib(ble_6lowpan.o)
    0x0002475a   0x00000002   PAD
    0x0002475c   0x00000044   Code   RO         1198    i.is_page_erase_required  pstorage.o
    0x000247a0   0x0000000e   Code   RO         1436    i.is_request        coap.o
    0x000247ae   0x0000000c   Code   RO         1199    i.is_word_aligned   pstorage.o
    0x000247ba   0x00000002   PAD
    0x000247bc   0x00000084   Code   RO         2482    i.joining_mode_adv_params_set  commissioning.o
    0x00024840   0x00000054   Code   RO         2483    i.joining_mode_gap_params_set  commissioning.o
    0x00024894   0x00000030   Code   RO         2484    i.joining_mode_timeout_handler  commissioning.o
    0x000248c4   0x00000054   Code   RO          496    i.le_role_encode    ble_advdata.o
    0x00024918   0x0000000a   Code   RO           19    i.led3_callback     main.o
    0x00024922   0x0000000a   Code   RO           20    i.led4_callback     main.o
    0x0002492c   0x0000006c   Code   RO           21    i.led_value_get     main.o
    0x00024998   0x000000bc   Code   RO         2772    i.list_deletions_handler  app_timer.o
    0x00024a54   0x000000cc   Code   RO         2773    i.list_insertions_handler  app_timer.o
    0x00024b20   0x000001bc   Code   RO           22    i.main              main.o
    0x00024cdc   0x00000014   Code   RO         1200    i.main_state_err_busy_process  pstorage.o
    0x00024cf0   0x00000064   Code   RO          497    i.manuf_specific_data_encode  ble_advdata.o
    0x00024d54   0x0000009c   Code   RO          498    i.name_encode       ble_advdata.o
    0x00024df0   0x0000001a   Code   RO          752    i.nrf_delay_ms      nrf_delay.o
    0x00024e0a   0x00000038   Code   RO          783    i.nrf_drv_common_irq_enable  nrf_drv_common.o
    0x00024e42   0x00000002   PAD
    0x00024e44   0x000000a4   Code   RO          820    i.nrf_drv_gpiote_in_event_enable  nrf_drv_gpiote.o
    0x00024ee8   0x000000b8   Code   RO          821    i.nrf_drv_gpiote_in_init  nrf_drv_gpiote.o
    0x00024fa0   0x00000014   Code   RO          822    i.nrf_drv_gpiote_in_is_set  nrf_drv_gpiote.o
    0x00024fb4   0x00000054   Code   RO          824    i.nrf_drv_gpiote_init  nrf_drv_gpiote.o
    0x00025008   0x00000014   Code   RO          825    i.nrf_drv_gpiote_is_init  nrf_drv_gpiote.o
    0x0002501c   0x00000040   Code   RO         2928    i.nrf_free          mem_manager.o
    0x0002505c   0x00000022   Code   RO          837    i.nrf_gpio_cfg      nrf_drv_gpiote.o
    0x0002507e   0x0000001c   Code   RO          839    i.nrf_gpio_cfg_sense_set  nrf_drv_gpiote.o
    0x0002509a   0x00000002   PAD
    0x0002509c   0x00000014   Code   RO          840    i.nrf_gpiote_event_clear  nrf_drv_gpiote.o
    0x000250b0   0x00000010   Code   RO          841    i.nrf_gpiote_event_is_set  nrf_drv_gpiote.o
    0x000250c0   0x00000020   Code   RO         2930    i.nrf_mem_init      mem_manager.o
    0x000250e0   0x000000b4   Code   RO         2931    i.nrf_mem_reserve   mem_manager.o
    0x00025194   0x0000000a   Code   RO         1028    i.nrf_uart_event_check  nrf_drv_uart.o
    0x0002519e   0x0000000c   Code   RO         1029    i.nrf_uart_int_enable_check  nrf_drv_uart.o
    0x000251aa   0x0000000a   Code   RO         1030    i.nrf_uarte_event_check  nrf_drv_uart.o
    0x000251b4   0x00000080   Code   RO         2204    i.on_ble_evt        ipv6_medium_ble.o
    0x00025234   0x000000c4   Code   RO         2485    i.on_ble_ncfgs_evt  commissioning.o
    0x000252f8   0x00000002   Code   RO           23    i.on_ipv6_medium_error  main.o
    0x000252fa   0x00000002   PAD
    0x000252fc   0x00000018   Code   RO           24    i.on_ipv6_medium_evt  main.o
    0x00025314   0x00000050   Code   RO         2007    i.pbuffer_allocate  iot_pbuffer.o
    0x00025364   0x00000028   Code   RO         2008    i.pbuffer_find      iot_pbuffer.o
    0x0002538c   0x0000000e   Code   RO         2009    i.pbuffer_init      iot_pbuffer.o
    0x0002539a   0x00000002   PAD
    0x0002539c   0x00000018   Code   RO          842    i.pin_in_use_by_port  nrf_drv_gpiote.o
    0x000253b4   0x00000018   Code   RO          843    i.pin_in_use_by_te  nrf_drv_gpiote.o
    0x000253cc   0x00000048   Code   RO         1795    i.port_data_callback  coap_transport_ipv6.o
    0x00025414   0x00000038   Code   RO         2486    i.print_node_settings  commissioning.o
    0x0002544c   0x00000002   Code   RO         2487    i.pstorage_cb_handler  commissioning.o
    0x0002544e   0x00000002   PAD
    0x00025450   0x0000009c   Code   RO         1203    i.pstorage_clear    pstorage.o
    0x000254ec   0x0000000a   Code   RO         1204    i.pstorage_flash_page_size  pstorage.o
    0x000254f6   0x00000002   PAD
    0x000254f8   0x00000064   Code   RO         1205    i.pstorage_init     pstorage.o
    0x0002555c   0x000000a8   Code   RO         1206    i.pstorage_load     pstorage.o
    0x00025604   0x000000b4   Code   RO         1207    i.pstorage_register  pstorage.o
    0x000256b8   0x00000048   Code   RO         1209    i.pstorage_sys_event_handler  pstorage.o
    0x00025700   0x00000088   Code   RO         1210    i.pstorage_update   pstorage.o
    0x00025788   0x00000136   Code   RO         1854    i.ra_input          icmp6.o
    0x000258be   0x00000002   PAD
    0x000258c0   0x0000007c   Code   RO         2488    i.read_node_settings  commissioning.o
    0x0002593c   0x0000003c   Code   RO         2774    i.rtc1_stop         app_timer.o
    0x00025978   0x00000024   Code   RO         1032    i.rx_byte           nrf_drv_uart.o
    0x0002599c   0x00000024   Code   RO         1033    i.rx_done_event     nrf_drv_uart.o
    0x000259c0   0x00000042   Code   RO         1437    i.send_error_response  coap.o
    0x00025a02   0x00000002   PAD
    0x00025a04   0x00000088   Code   RO          499    i.service_data_encode  ble_advdata.o
    0x00025a8c   0x0000003c   Code   RO         1211    i.sm_state_change   pstorage.o
    0x00025ac8   0x0000000c   Code   RO         3034    i.softdevice_assertion_handler  softdevice_handler.o
    0x00025ad4   0x00000014   Code   RO         3035    i.softdevice_ble_evt_handler_set  softdevice_handler.o
    0x00025ae8   0x00000030   Code   RO         3036    i.softdevice_handler_init  softdevice_handler.o
    0x00025b18   0x00000014   Code   RO         3039    i.softdevice_sys_evt_handler_set  softdevice_handler.o
    0x00025b2c   0x00000068   Code   RO         1212    i.state_data_erase_swap_entry_run  pstorage.o
    0x00025b94   0x0000000c   Code   RO         1213    i.state_erase_data_page_entry_run  pstorage.o
    0x00025ba0   0x00000030   Code   RO         1214    i.state_restore_head_entry_run  pstorage.o
    0x00025bd0   0x00000050   Code   RO         1215    i.state_restore_tail_entry_run  pstorage.o
    0x00025c20   0x00000022   Code   RO         1216    i.state_swap_erase_entry_run  pstorage.o
    0x00025c42   0x00000002   PAD
    0x00025c44   0x00000034   Code   RO         1217    i.state_write_data_swap_entry_run  pstorage.o
    0x00025c78   0x0000005c   Code   RO         1218    i.store_cmd_flash_write_execute  pstorage.o
    0x00025cd4   0x00000018   Code   RO         1219    i.swap_erase_state_run  pstorage.o
    0x00025cec   0x00000014   Code   RO         1220    i.swap_sub_state_err_busy_process  pstorage.o
    0x00025d00   0x00000014   Code   RO         1221    i.swap_sub_state_state_change  pstorage.o
    0x00025d14   0x00000004   Code   RO         2205    i.sys_evt_dispatch  ipv6_medium_ble.o
    0x00025d18   0x00000014   Code   RO         1222    i.tail_restore_state_run  pstorage.o
    0x00025d2c   0x0000008c   Code   RO         2775    i.timer_list_handler  app_timer.o
    0x00025db8   0x0000003c   Code   RO         2776    i.timer_list_insert  app_timer.o
    0x00025df4   0x00000088   Code   RO         2777    i.timer_timeouts_check  app_timer.o
    0x00025e7c   0x00000024   Code   RO         1035    i.tx_byte           nrf_drv_uart.o
    0x00025ea0   0x0000001c   Code   RO         3154    i.tx_complete       ble_6lowpan.lib(ble_6lowpan.o)
    0x00025ebc   0x00000024   Code   RO         1036    i.tx_done_event     nrf_drv_uart.o
    0x00025ee0   0x00000058   Code   RO         3155    i.tx_send           ble_6lowpan.lib(ble_6lowpan.o)
    0x00025f38   0x00000022   Code   RO         2010    i.type_offset_get   iot_pbuffer.o
    0x00025f5a   0x00000002   PAD
    0x00025f5c   0x0000004c   Code   RO         2340    i.udp6_socket_allocate  udp6.o
    0x00025fa8   0x00000040   Code   RO         2341    i.udp6_socket_app_data_set  udp6.o
    0x00025fe8   0x00000084   Code   RO         2342    i.udp6_socket_bind  udp6.o
    0x0002606c   0x00000040   Code   RO         2344    i.udp6_socket_free  udp6.o
    0x000260ac   0x0000004c   Code   RO         2345    i.udp6_socket_recv  udp6.o
    0x000260f8   0x00000148   Code   RO         2347    i.udp6_socket_sendto  udp6.o
    0x00026240   0x00000030   Code   RO         2348    i.udp_init          udp6.o
    0x00026270   0x0000016c   Code   RO         2349    i.udp_input         udp6.o
    0x000263dc   0x0000001c   Code   RO         2350    i.udp_socket_init   udp6.o
    0x000263f8   0x0000000a   Code   RO          500    i.uint16_encode     ble_advdata.o
    0x00026402   0x00000002   PAD
    0x00026404   0x00000044   Code   RO         2778    i.user_id_get       app_timer.o
    0x00026448   0x00000028   Code   RO         2779    i.user_op_alloc     app_timer.o
    0x00026470   0x00000030   Code   RO          501    i.uuid_list_encode  ble_advdata.o
    0x000264a0   0x0000009e   Code   RO          502    i.uuid_list_sized_encode  ble_advdata.o
    0x0002653e   0x00000002   PAD
    0x00026540   0x000000dc   Code   RO           25    i.well_known_core_callback  main.o
    0x0002661c   0x00000034   Data   RO           28    .constdata          main.o
    0x00026650   0x00000018   Data   RO           29    .constdata          main.o
    0x00026668   0x00000028   Data   RO         1224    .constdata          pstorage.o
    0x00026690   0x00000010   Data   RO         2425    .constdata          ble_ncfgs.o
    0x000266a0   0x00000008   Data   RO         2622    .constdata          app_button.o
    0x000266a8   0x00000070   Data   RO         2934    .constdata          mem_manager.o
    0x00026718   0x00000008   Data   RO         3157    .constdata          ble_6lowpan.lib(ble_6lowpan.o)
    0x00026720   0x00000020   Data   RO         3534    Region$$Table       anon$$obj.o


    Execution Region RW_IRAM1 (Base: 0x20002800, Size: 0x00005638, Max: 0x0000d800, ABSOLUTE, COMPRESSED[0x00000048])

    Base Addr    Size         Type   Attr      Idx    E Section Name        Object

    0x20002800   0x00000062   Data   RW           30    .data               main.o
    0x20002862   0x00000002   PAD
    0x20002864   0x00000024   Data   RW         1225    .data               pstorage.o
    0x20002888   0x00000090   Data   RW         1438    .data               coap.o
    0x20002918   0x00000001   Data   RW         1702    .data               coap_queue.o
    0x20002919   0x00000003   PAD
    0x2000291c   0x00000004   Data   RW         1748    .data               coap_resource.o
    0x20002920   0x00000008   Data   RW         1796    .data               coap_transport_ipv6.o
    0x20002928   0x00000008   Data   RW         1855    .data               icmp6.o
    0x20002930   0x00000001   Data   RW         1937    .data               iot_context_manager.o
    0x20002931   0x00000001   Data   RW         2012    .data               iot_pbuffer.o
    0x20002932   0x00000002   PAD
    0x20002934   0x00000008   Data   RW         2069    .data               iot_timer.o
    0x2000293c   0x00000010   Data   RW         2109    .data               ipv6.o
    0x2000294c   0x0000002b   Data   RW         2207    .data               ipv6_medium_ble.o
    0x20002977   0x00000001   Data   RW         2352    .data               udp6.o
    0x20002978   0x00000008   Data   RW         2426    .data               ble_ncfgs.o
    0x20002980   0x0000001c   Data   RW         2490    .data               commissioning.o
    0x2000299c   0x00000014   Data   RW         2623    .data               app_button.o
    0x200029b0   0x00000020   Data   RW         2780    .data               app_timer.o
    0x200029d0   0x00000008   Data   RW         2935    .data               mem_manager.o
    0x200029d8   0x00000014   Data   RW         3040    .data               softdevice_handler.o
    0x200029ec   0x00000004   Data   RW         3109    .data               system_nrf52.o
    0x200029f0   0x0000000c   Data   RW         3158    .data               ble_6lowpan.lib(ble_6lowpan.o)
    0x200029fc   0x00000004   Data   RW         3187    .data               ble_6lowpan.lib(ble_ipsp.o)
    0x20002a00   0x00000020   Zero   RW           26    .bss                main.o
    0x20002a20   0x00000518   Zero   RW           27    .bss                main.o
    0x20002f38   0x00000058   Zero   RW          844    .bss                nrf_drv_gpiote.o
    0x20002f90   0x00000018   Zero   RW         1037    .bss                nrf_drv_uart.o
    0x20002fa8   0x00000274   Zero   RW         1223    .bss                pstorage.o
    0x2000321c   0x000000f0   Zero   RW         1701    .bss                coap_queue.o
    0x2000330c   0x0000006a   Zero   RW         1747    .bss                coap_resource.o
    0x20003376   0x00000002   PAD
    0x20003378   0x00000188   Zero   RW         1936    .bss                iot_context_manager.o
    0x20003500   0x000000c8   Zero   RW         2011    .bss                iot_pbuffer.o
    0x200035c8   0x0000004c   Zero   RW         2108    .bss                ipv6.o
    0x20003614   0x00000048   Zero   RW         2206    .bss                ipv6_medium_ble.o
    0x2000365c   0x00000084   Zero   RW         2351    .bss                udp6.o
    0x200036e0   0x00000061   Zero   RW         2424    .bss                ble_ncfgs.o
    0x20003741   0x00000007   PAD
    0x20003748   0x000001d8   Zero   RW         2489    .bss                commissioning.o
    0x20003920   0x00000020   Zero   RW         2621    .bss                app_button.o
    0x20003940   0x00001000   Zero   RW         2933    .bss                mem_manager.o
    0x20004940   0x000000ec   Zero   RW         3156    .bss                ble_6lowpan.lib(ble_6lowpan.o)
    0x20004a2c   0x0000140c   Zero   RW         3185    .bss                ble_6lowpan.lib(ble_ipsp.o)
    0x20005e38   0x00002000   Zero   RW         3097    STACK               arm_startup_nrf52.o


==============================================================================

Image component sizes


      Code (inc. data)   RO Data    RW Data    ZI Data      Debug   Object Name

       332         34          8         20         32       9134   app_button.o
      1776        100          0         32          0      50679   app_timer.o
        36         10       1024          0       8192        868   arm_startup_nrf52.o
      1540          0          0          0          0      19424   ble_advdata.o
       972         50         16          8         97       7825   ble_ncfgs.o
         0          0          0          0          0       3984   bsp.o
      1458         24          0        144          0      20015   coap.o
      1248          0          0          0          0      12410   coap_message.o
       206          6          0          0          0       2562   coap_option.o
       428         42          0          1        240       6082   coap_queue.o
       528         32          0          4        106       6866   coap_resource.o
       306         22          0          8          0       7502   coap_transport_ipv6.o
      1814        216          0         28        472      23675   commissioning.o
      1204         24          0          8          0      12404   icmp6.o
       948         66          0          1        392      13555   iot_context_manager.o
       392         36          0          1        200       8169   iot_pbuffer.o
       148          8          0          8          0       3419   iot_timer.o
      1266         78          0         16         76      22182   ipv6.o
       840         74          0         43         72      13392   ipv6_medium_ble.o
       116          0          0          0          0       2297   ipv6_utils.o
      1982        186         76         98       1336     151695   main.o
       392         40        112          8       4096      10388   mem_manager.o
       144          0          0          0          0       1863   nrf_delay.o
        56          0          0          0          0      28439   nrf_drv_common.o
       994         94          0          0         88      22888   nrf_drv_gpiote.o
       576         36          0          0         24      18302   nrf_drv_uart.o
      2500        226         40         36        628      35904   pstorage.o
       260         32          0         20          0       6929   softdevice_handler.o
       288         34          0          4          0       2087   system_nrf52.o
      1180         78          0          1        132      11979   udp6.o

    ----------------------------------------------------------------------
     23990       1548       1308        496      16192     536918   Object Totals
         0          0         32          0          0          0   (incl. Generated)
        60          0          0          7          9          0   (incl. Padding)

    ----------------------------------------------------------------------

      Code (inc. data)   RO Data    RW Data    ZI Data      Debug   Library Member Name

      3368         48          8         12        236       1592   ble_6lowpan.o
      1072         40          0          4       5132        776   ble_ipsp.o
        86          0          0          0          0          0   __dczerorl2.o
         0          0          0          0          0          0   entry.o
         0          0          0          0          0          0   entry10a.o
         0          0          0          0          0          0   entry11a.o
         8          4          0          0          0          0   entry2.o
         4          0          0          0          0          0   entry5.o
         0          0          0          0          0          0   entry7b.o
         0          0          0          0          0          0   entry8b.o
         8          4          0          0          0          0   entry9a.o
        30          0          0          0          0          0   handlers.o
        36          8          0          0          0         68   init.o
        26          0          0          0          0         80   memcmp.o
        36          0          0          0          0         68   memcpya.o
        36          0          0          0          0        108   memseta.o
       390         10          0          0          0        252   printf1.o
        14          0          0          0          0         68   strlen.o
        30          0          0          0          0         80   strncmp.o
        24          0          0          0          0         76   strncpy.o
        44          0          0          0          0         80   uidiv.o

    ----------------------------------------------------------------------
      5222        114          8         16       5368       3248   Library Totals
        10          0          0          0          0          0   (incl. Padding)

    ----------------------------------------------------------------------

      Code (inc. data)   RO Data    RW Data    ZI Data      Debug   Library Name

      4440         88          8         16       5368       2368   ble_6lowpan.lib
       772         26          0          0          0        880   mc_w.l

    ----------------------------------------------------------------------
      5222        114          8         16       5368       3248   Library Totals

    ----------------------------------------------------------------------

==============================================================================


      Code (inc. data)   RO Data    RW Data    ZI Data      Debug   

     29212       1662       1316        512      21560     512286   Grand Totals
     29212       1662       1316         72      21560     512286   ELF Image Totals (compressed)
     29212       1662       1316         72          0          0   ROM Totals

==============================================================================

    Total RO  Size (Code + RO Data)                30528 (  29.81kB)
    Total RW  Size (RW Data + ZI Data)             22072 (  21.55kB)
    Total ROM Size (Code + RO Data + RW Data)      30600 (  29.88kB)

==============================================================================

